

Microchip MPLAB XC8 Assembler V2.20 build 20200408173844 
                                                                                               Fri Jun 04 02:41:59 2021

Microchip MPLAB XC8 C Compiler v2.20 (Free license) build 20200408173844 Og1 
     1                           	processor	16F887
     2                           	pagewidth 120
     3                           	opt	flic
     4                           	psect	cinit,global,class=CODE,merge=1,delta=2
     5                           	psect	bssBANK0,global,class=BANK0,space=1,delta=1,noexec
     6                           	psect	cstackCOMMON,global,class=COMMON,space=1,delta=1,noexec
     7                           	psect	cstackBANK0,global,class=BANK0,space=1,delta=1,noexec
     8                           	psect	maintext,global,class=CODE,split=1,delta=2
     9                           	psect	text1,local,class=CODE,merge=1,delta=2
    10                           	psect	text2,local,class=CODE,merge=1,delta=2
    11                           	psect	text3,local,class=CODE,merge=1,delta=2
    12                           	psect	text4,local,class=CODE,merge=1,delta=2
    13                           	psect	text5,local,class=CODE,merge=1,delta=2
    14                           	psect	text6,local,class=CODE,merge=1,delta=2
    15                           	psect	intentry,global,class=CODE,delta=2
    16                           	psect	text7,local,class=CODE,merge=1,delta=2,group=1
    17                           	psect	text8,local,class=CODE,merge=1,delta=2,group=1
    18                           	psect	config,global,abs,ovrld,class=CONFIG,space=4,delta=2,noexec
    19                           	dabs	1,0x7E,2
    20  0000                     
    21                           ; Version 2.20
    22                           ; Generated 12/02/2020 GMT
    23                           ; 
    24                           ; Copyright © 2020, Microchip Technology Inc. and its subsidiaries ("Microchip")
    25                           ; All rights reserved.
    26                           ; 
    27                           ; This software is developed by Microchip Technology Inc. and its subsidiaries ("Microch
      +                          ip").
    28                           ; 
    29                           ; Redistribution and use in source and binary forms, with or without modification, are
    30                           ; permitted provided that the following conditions are met:
    31                           ; 
    32                           ;     1. Redistributions of source code must retain the above copyright notice, this lis
      +                          t of
    33                           ;        conditions and the following disclaimer.
    34                           ; 
    35                           ;     2. Redistributions in binary form must reproduce the above copyright notice, this 
      +                          list
    36                           ;        of conditions and the following disclaimer in the documentation and/or other
    37                           ;        materials provided with the distribution.
    38                           ; 
    39                           ;     3. Microchip's name may not be used to endorse or promote products derived from th
      +                          is
    40                           ;        software without specific prior written permission.
    41                           ; 
    42                           ; THIS SOFTWARE IS PROVIDED BY MICROCHIP "AS IS" AND ANY EXPRESS OR IMPLIED WARRANTIES,
    43                           ; INCLUDING, BUT NOT LIMITED TO, THE IMPLIED WARRANTIES OF MERCHANTABILITY AND FITNESS F
      +                          OR
    44                           ; PURPOSE ARE DISCLAIMED.  IN NO EVENT SHALL MICROCHIP BE LIABLE FOR ANY DIRECT, INDIREC
      +                          T,
    45                           ; INCIDENTAL, SPECIAL, EXEMPLARY, OR CONSEQUENTIAL DAMAGES (INCLUDING BUT NOT LIMITED TO
    46                           ; PROCUREMENT OF SUBSTITUTE GOODS OR SERVICES; LOSS OF USE, DATA OR PROFITS; OR BUSINESS
    47                           ; INTERRUPTION) HOWSOEVER CAUSED AND ON ANY THEORY OF LIABILITY, WHETHER IN CONTRACT, ST
      +                          RICT
    48                           ; LIABILITY, OR TORT (INCLUDING NEGLIGENCE OR OTHERWISE) ARISING IN ANY WAY OUT OF THE U
      +                          SE OF
    49                           ; THIS SOFTWARE, EVEN IF ADVISED OF THE POSSIBILITY OF SUCH DAMAGE.
    50                           ; 
    51                           ; 
    52                           ; Code-generator required, PIC16F887 Definitions
    53                           ; 
    54                           ; SFR Addresses
    55  0000                     	;# 
    56  0001                     	;# 
    57  0002                     	;# 
    58  0003                     	;# 
    59  0004                     	;# 
    60  0005                     	;# 
    61  0006                     	;# 
    62  0007                     	;# 
    63  0008                     	;# 
    64  0009                     	;# 
    65  000A                     	;# 
    66  000B                     	;# 
    67  000C                     	;# 
    68  000D                     	;# 
    69  000E                     	;# 
    70  000E                     	;# 
    71  000F                     	;# 
    72  0010                     	;# 
    73  0011                     	;# 
    74  0012                     	;# 
    75  0013                     	;# 
    76  0014                     	;# 
    77  0015                     	;# 
    78  0015                     	;# 
    79  0016                     	;# 
    80  0017                     	;# 
    81  0018                     	;# 
    82  0019                     	;# 
    83  001A                     	;# 
    84  001B                     	;# 
    85  001B                     	;# 
    86  001C                     	;# 
    87  001D                     	;# 
    88  001E                     	;# 
    89  001F                     	;# 
    90  0081                     	;# 
    91  0085                     	;# 
    92  0086                     	;# 
    93  0087                     	;# 
    94  0088                     	;# 
    95  0089                     	;# 
    96  008C                     	;# 
    97  008D                     	;# 
    98  008E                     	;# 
    99  008F                     	;# 
   100  0090                     	;# 
   101  0091                     	;# 
   102  0092                     	;# 
   103  0093                     	;# 
   104  0093                     	;# 
   105  0093                     	;# 
   106  0094                     	;# 
   107  0095                     	;# 
   108  0096                     	;# 
   109  0097                     	;# 
   110  0098                     	;# 
   111  0099                     	;# 
   112  009A                     	;# 
   113  009B                     	;# 
   114  009C                     	;# 
   115  009D                     	;# 
   116  009E                     	;# 
   117  009F                     	;# 
   118  0105                     	;# 
   119  0107                     	;# 
   120  0108                     	;# 
   121  0109                     	;# 
   122  010C                     	;# 
   123  010C                     	;# 
   124  010D                     	;# 
   125  010E                     	;# 
   126  010F                     	;# 
   127  0185                     	;# 
   128  0187                     	;# 
   129  0188                     	;# 
   130  0189                     	;# 
   131  018C                     	;# 
   132  018D                     	;# 
   133  0000                     	;# 
   134  0001                     	;# 
   135  0002                     	;# 
   136  0003                     	;# 
   137  0004                     	;# 
   138  0005                     	;# 
   139  0006                     	;# 
   140  0007                     	;# 
   141  0008                     	;# 
   142  0009                     	;# 
   143  000A                     	;# 
   144  000B                     	;# 
   145  000C                     	;# 
   146  000D                     	;# 
   147  000E                     	;# 
   148  000E                     	;# 
   149  000F                     	;# 
   150  0010                     	;# 
   151  0011                     	;# 
   152  0012                     	;# 
   153  0013                     	;# 
   154  0014                     	;# 
   155  0015                     	;# 
   156  0015                     	;# 
   157  0016                     	;# 
   158  0017                     	;# 
   159  0018                     	;# 
   160  0019                     	;# 
   161  001A                     	;# 
   162  001B                     	;# 
   163  001B                     	;# 
   164  001C                     	;# 
   165  001D                     	;# 
   166  001E                     	;# 
   167  001F                     	;# 
   168  0081                     	;# 
   169  0085                     	;# 
   170  0086                     	;# 
   171  0087                     	;# 
   172  0088                     	;# 
   173  0089                     	;# 
   174  008C                     	;# 
   175  008D                     	;# 
   176  008E                     	;# 
   177  008F                     	;# 
   178  0090                     	;# 
   179  0091                     	;# 
   180  0092                     	;# 
   181  0093                     	;# 
   182  0093                     	;# 
   183  0093                     	;# 
   184  0094                     	;# 
   185  0095                     	;# 
   186  0096                     	;# 
   187  0097                     	;# 
   188  0098                     	;# 
   189  0099                     	;# 
   190  009A                     	;# 
   191  009B                     	;# 
   192  009C                     	;# 
   193  009D                     	;# 
   194  009E                     	;# 
   195  009F                     	;# 
   196  0105                     	;# 
   197  0107                     	;# 
   198  0108                     	;# 
   199  0109                     	;# 
   200  010C                     	;# 
   201  010C                     	;# 
   202  010D                     	;# 
   203  010E                     	;# 
   204  010F                     	;# 
   205  0185                     	;# 
   206  0187                     	;# 
   207  0188                     	;# 
   208  0189                     	;# 
   209  018C                     	;# 
   210  018D                     	;# 
   211  0009                     _PORTE	set	9
   212  0008                     _PORTD	set	8
   213  0007                     _PORTC	set	7
   214  000B                     _INTCONbits	set	11
   215  0012                     _T2CONbits	set	18
   216  001B                     _CCPR2L	set	27
   217  0015                     _CCPR1L	set	21
   218  001D                     _CCP2CONbits	set	29
   219  0017                     _CCP1CONbits	set	23
   220  000C                     _PIR1bits	set	12
   221  000B                     _INTCON	set	11
   222  0019                     _TXREG	set	25
   223  001A                     _RCREG	set	26
   224  0006                     _PORTB	set	6
   225  001E                     _ADRESH	set	30
   226  001F                     _ADCON0bits	set	31
   227  0001                     _TMR0	set	1
   228  0043                     _RD3	set	67
   229  0041                     _RD1	set	65
   230  0039                     _RC1	set	57
   231  0042                     _RD2	set	66
   232  003A                     _RC2	set	58
   233  0040                     _RD0	set	64
   234  0030                     _RB0	set	48
   235  00C4                     _CREN	set	196
   236  00C7                     _SPEN	set	199
   237  0065                     _RCIF	set	101
   238  0058                     _RBIF	set	88
   239  0066                     _ADIF	set	102
   240  0047                     _RD7	set	71
   241  0046                     _RD6	set	70
   242  005A                     _T0IF	set	90
   243  0089                     _TRISE	set	137
   244  0088                     _TRISD	set	136
   245  0087                     _TRISC	set	135
   246  0085                     _TRISA	set	133
   247  0095                     _WPUBbits	set	149
   248  0081                     _OPTION_REGbits	set	129
   249  009F                     _ADCON1bits	set	159
   250  0092                     _PR2	set	146
   251  0099                     _SPBRG	set	153
   252  008C                     _PIE1bits	set	140
   253  04B6                     _IOCB6	set	1206
   254  04B5                     _IOCB5	set	1205
   255  04B4                     _IOCB4	set	1204
   256  04B3                     _IOCB3	set	1203
   257  04B2                     _IOCB2	set	1202
   258  04B1                     _IOCB1	set	1201
   259  04B0                     _IOCB0	set	1200
   260  04C4                     _SYNC	set	1220
   261  04C5                     _TXEN	set	1221
   262  040B                     _PSA	set	1035
   263  040D                     _T0CS	set	1037
   264  040A                     _PS2	set	1034
   265  0409                     _PS1	set	1033
   266  0408                     _PS0	set	1032
   267  047E                     _IRCF2	set	1150
   268  047D                     _IRCF1	set	1149
   269  047C                     _IRCF0	set	1148
   270  0189                     _ANSELH	set	393
   271  0188                     _ANSEL	set	392
   272                           
   273                           	psect	cinit
   274  0013                     start_initialization:	
   275                           ; #config settings
   276                           
   277  0013                     __initialization:
   278                           
   279                           ; Clear objects allocated to BANK0
   280  0013  1283               	bcf	3,5	;RP0=0, select bank0
   281  0014  1303               	bcf	3,6	;RP1=0, select bank0
   282  0015  01A0               	clrf	__pbssBANK0& (0+127)
   283  0016  01A1               	clrf	(__pbssBANK0+1)& (0+127)
   284  0017  01A2               	clrf	(__pbssBANK0+2)& (0+127)
   285  0018  01A3               	clrf	(__pbssBANK0+3)& (0+127)
   286  0019  01A4               	clrf	(__pbssBANK0+4)& (0+127)
   287  001A  01A5               	clrf	(__pbssBANK0+5)& (0+127)
   288  001B  01A6               	clrf	(__pbssBANK0+6)& (0+127)
   289  001C  01A7               	clrf	(__pbssBANK0+7)& (0+127)
   290  001D  01A8               	clrf	(__pbssBANK0+8)& (0+127)
   291  001E  01A9               	clrf	(__pbssBANK0+9)& (0+127)
   292  001F  01AA               	clrf	(__pbssBANK0+10)& (0+127)
   293  0020  01AB               	clrf	(__pbssBANK0+11)& (0+127)
   294  0021  01AC               	clrf	(__pbssBANK0+12)& (0+127)
   295  0022                     end_of_initialization:	
   296                           ;End of C runtime variable initialization code
   297                           
   298  0022                     __end_of__initialization:
   299  0022  0183               	clrf	3
   300  0023  120A  118A  2933   	ljmp	_main	;jump to C main() function
   301                           
   302                           	psect	bssBANK0
   303  0020                     __pbssBANK0:
   304  0020                     _t:
   305  0020                     	ds	1
   306  0021                     _M_Luces:
   307  0021                     	ds	1
   308  0022                     _Direccion:
   309  0022                     	ds	1
   310  0023                     _Contador_Servo2:
   311  0023                     	ds	1
   312  0024                     _Contador_Servo1:
   313  0024                     	ds	1
   314  0025                     _WD:
   315  0025                     	ds	1
   316  0026                     _Lock:
   317  0026                     	ds	1
   318  0027                     _Atras:
   319  0027                     	ds	1
   320  0028                     _Adelante:
   321  0028                     	ds	1
   322  0029                     _B_flag:
   323  0029                     	ds	1
   324  002A                     _Boton:
   325  002A                     	ds	1
   326  002B                     _Valor_CCP2:
   327  002B                     	ds	1
   328  002C                     _Valor_CCP1:
   329  002C                     	ds	1
   330                           
   331                           	psect	cstackCOMMON
   332  0070                     __pcstackCOMMON:
   333  0070                     ?_Motores:
   334  0070                     ?_Botones:	
   335                           ; 1 bytes @ 0x0
   336                           
   337  0070                     ?_Motores_Adelante:	
   338                           ; 1 bytes @ 0x0
   339                           
   340  0070                     ?_Motores_Atras:	
   341                           ; 1 bytes @ 0x0
   342                           
   343  0070                     ?_Motores_Neutro:	
   344                           ; 1 bytes @ 0x0
   345                           
   346  0070                     ?_isr:	
   347                           ; 1 bytes @ 0x0
   348                           
   349  0070                     ?_main:	
   350                           ; 1 bytes @ 0x0
   351                           
   352  0070                     ?___wmul:	
   353                           ; 1 bytes @ 0x0
   354                           
   355  0070                     ___wmul@multiplier:	
   356                           ; 2 bytes @ 0x0
   357                           
   358                           
   359                           ; 2 bytes @ 0x0
   360  0070                     	ds	2
   361  0072                     ___wmul@multiplicand:
   362                           
   363                           ; 2 bytes @ 0x2
   364  0072                     	ds	2
   365  0074                     ??___wmul:
   366  0074                     ___wmul@product:	
   367                           ; 1 bytes @ 0x4
   368                           
   369                           
   370                           ; 2 bytes @ 0x4
   371  0074                     	ds	2
   372  0076                     ?___awdiv:
   373  0076                     ___awdiv@divisor:	
   374                           ; 2 bytes @ 0x6
   375                           
   376                           
   377                           ; 2 bytes @ 0x6
   378  0076                     	ds	2
   379  0078                     ___awdiv@dividend:
   380                           
   381                           ; 2 bytes @ 0x8
   382  0078                     	ds	2
   383  007A                     ??___awdiv:
   384  007A                     ___awdiv@counter:	
   385                           ; 1 bytes @ 0xA
   386                           
   387                           
   388                           ; 1 bytes @ 0xA
   389  007A                     	ds	1
   390  007B                     ___awdiv@sign:
   391                           
   392                           ; 1 bytes @ 0xB
   393  007B                     	ds	1
   394  007C                     ___awdiv@quotient:
   395                           
   396                           ; 2 bytes @ 0xC
   397  007C                     	ds	2
   398                           
   399                           	psect	cstackBANK0
   400  002D                     __pcstackBANK0:
   401  002D                     ??_isr:
   402                           
   403                           ; 1 bytes @ 0x0
   404  002D                     	ds	5
   405  0032                     ??_Motores:
   406  0032                     ??_Botones:	
   407                           ; 1 bytes @ 0x5
   408                           
   409  0032                     ??_Motores_Adelante:	
   410                           ; 1 bytes @ 0x5
   411                           
   412  0032                     ??_Motores_Atras:	
   413                           ; 1 bytes @ 0x5
   414                           
   415  0032                     ??_Motores_Neutro:	
   416                           ; 1 bytes @ 0x5
   417                           
   418  0032                     ??_main:	
   419                           ; 1 bytes @ 0x5
   420                           
   421                           
   422                           ; 1 bytes @ 0x5
   423  0032                     	ds	1
   424                           
   425                           	psect	maintext
   426  0133                     __pmaintext:	
   427 ;;
   428 ;;Main: autosize = 0, tempsize = 1, incstack = 0, save=0
   429 ;;
   430 ;; *************** function _main *****************
   431 ;; Defined at:
   432 ;;		line 146 in file "Proyecto2.c"
   433 ;; Parameters:    Size  Location     Type
   434 ;;		None
   435 ;; Auto vars:     Size  Location     Type
   436 ;;		None
   437 ;; Return value:  Size  Location     Type
   438 ;;                  1    wreg      void 
   439 ;; Registers used:
   440 ;;		wreg, status,2, status,0, btemp+1, pclath, cstack
   441 ;; Tracked objects:
   442 ;;		On entry : B00/0
   443 ;;		On exit  : 0/0
   444 ;;		Unchanged: 0/0
   445 ;; Data sizes:     COMMON   BANK0   BANK1   BANK3   BANK2
   446 ;;      Params:         0       0       0       0       0
   447 ;;      Locals:         0       0       0       0       0
   448 ;;      Temps:          0       1       0       0       0
   449 ;;      Totals:         0       1       0       0       0
   450 ;;Total ram usage:        1 bytes
   451 ;; Hardware stack levels required when called:    3
   452 ;; This function calls:
   453 ;;		_Botones
   454 ;;		_Motores
   455 ;;		_Motores_Adelante
   456 ;;		_Motores_Atras
   457 ;;		_Motores_Neutro
   458 ;; This function is called by:
   459 ;;		Startup code after reset
   460 ;; This function uses a non-reentrant model
   461 ;;
   462                           
   463                           
   464                           ;psect for function _main
   465  0133                     _main:
   466  0133                     l1401:	
   467                           ;incstack = 0
   468                           ; Regs used in _main: [wreg+status,2+status,0+btemp+1+pclath+cstack]
   469                           
   470                           
   471                           ;Proyecto2.c: 148: 
   472  0133  1683               	bsf	3,5	;RP0=1, select bank1
   473  0134  1303               	bcf	3,6	;RP1=0, select bank1
   474  0135  160F               	bsf	15,4	;volatile
   475                           
   476                           ;Proyecto2.c: 149: 
   477  0136  168F               	bsf	15,5	;volatile
   478                           
   479                           ;Proyecto2.c: 150:     PIE1bits.ADIE = 1;
   480  0137  170F               	bsf	15,6	;volatile
   481                           
   482                           ;Proyecto2.c: 153:     ADCON1bits.VCFG0 = 0;
   483  0138  1001               	bcf	1,0	;volatile
   484                           
   485                           ;Proyecto2.c: 154:     ADCON1bits.VCFG0 = 0;
   486  0139  1481               	bsf	1,1	;volatile
   487                           
   488                           ;Proyecto2.c: 155:     ADCON0bits.ADCS0 = 0;
   489  013A  1501               	bsf	1,2	;volatile
   490                           
   491                           ;Proyecto2.c: 156:     ADCON0bits.ADCS1 = 1;
   492  013B  1281               	bcf	1,5	;volatile
   493                           
   494                           ;Proyecto2.c: 157:     ADCON0bits.ADON = 1;
   495  013C  1181               	bcf	1,3	;volatile
   496  013D                     l1403:
   497                           
   498                           ;Proyecto2.c: 158:     _delay((unsigned long)((50)*(8000000/4000000.0)));
   499  013D  30E8               	movlw	232
   500  013E  008B               	movwf	11	;volatile
   501                           
   502                           ;Proyecto2.c: 159:     ADCON0bits.GO = 1;
   503  013F  30FF               	movlw	255
   504  0140  1283               	bcf	3,5	;RP0=0, select bank0
   505  0141  1303               	bcf	3,6	;RP1=0, select bank0
   506  0142  0081               	movwf	1	;volatile
   507  0143                     l1405:
   508                           
   509                           ;Proyecto2.c: 162:     OPTION_REGbits.nRBPU = 0;
   510  0143  1683               	bsf	3,5	;RP0=1, select bank1
   511  0144  1303               	bcf	3,6	;RP1=0, select bank1
   512  0145  1698               	bsf	24,5	;volatile
   513  0146                     l1407:
   514                           
   515                           ;Proyecto2.c: 163:     WPUBbits.WPUB0=1;
   516  0146  1218               	bcf	24,4	;volatile
   517  0147                     l1409:
   518                           
   519                           ;Proyecto2.c: 164:     WPUBbits.WPUB1=1;
   520  0147  1283               	bcf	3,5	;RP0=0, select bank0
   521  0148  1303               	bcf	3,6	;RP1=0, select bank0
   522  0149  1798               	bsf	24,7	;volatile
   523  014A                     l1411:
   524                           
   525                           ;Proyecto2.c: 166:     WPUBbits.WPUB3=1;
   526  014A  1618               	bsf	24,4	;volatile
   527  014B                     l1413:
   528                           
   529                           ;Proyecto2.c: 167:     WPUBbits.WPUB4=1;
   530  014B  1683               	bsf	3,5	;RP0=1, select bank1
   531  014C  1303               	bcf	3,6	;RP1=0, select bank1
   532  014D  168C               	bsf	12,5	;volatile
   533  014E                     l1415:
   534                           
   535                           ;Proyecto2.c: 168:     WPUBbits.WPUB5=1;
   536  014E  1283               	bcf	3,5	;RP0=0, select bank0
   537  014F  1303               	bcf	3,6	;RP1=0, select bank0
   538  0150  128C               	bcf	12,5	;volatile
   539                           
   540                           ;Proyecto2.c: 169:     WPUBbits.WPUB6=1;
   541  0151  300C               	movlw	12
   542  0152  1683               	bsf	3,5	;RP0=1, select bank1
   543  0153  1303               	bcf	3,6	;RP1=0, select bank1
   544  0154  0099               	movwf	25	;volatile
   545                           
   546                           ;Proyecto2.c: 172:     IOCB1 = 1;
   547  0155  30F9               	movlw	249
   548  0156  0092               	movwf	18	;volatile
   549  0157                     l1417:
   550                           
   551                           ;Proyecto2.c: 173:     IOCB2 = 1;
   552  0157  303F               	movlw	-193
   553  0158  1283               	bcf	3,5	;RP0=0, select bank0
   554  0159  1303               	bcf	3,6	;RP1=0, select bank0
   555  015A  0597               	andwf	23,f	;volatile
   556  015B                     l1419:
   557                           
   558                           ;Proyecto2.c: 174:     IOCB3 = 1;
   559  015B  0817               	movf	23,w	;volatile
   560  015C  39F0               	andlw	-16
   561  015D  380C               	iorlw	12
   562  015E  0097               	movwf	23	;volatile
   563  015F                     l1421:
   564                           
   565                           ;Proyecto2.c: 175:     IOCB4 = 1;
   566  015F  081D               	movf	29,w	;volatile
   567  0160  39F0               	andlw	-16
   568  0161  380C               	iorlw	12
   569  0162  009D               	movwf	29	;volatile
   570  0163                     l1423:
   571                           
   572                           ;Proyecto2.c: 176:     IOCB5 = 1;
   573  0163  0195               	clrf	21	;volatile
   574  0164                     l1425:
   575                           
   576                           ;Proyecto2.c: 177:     IOCB6 = 1;
   577  0164  019B               	clrf	27	;volatile
   578  0165                     l1427:
   579                           
   580                           ;Proyecto2.c: 178:     INTCONbits.RBIF = 0;
   581  0165  30CF               	movlw	-49
   582  0166  0597               	andwf	23,f	;volatile
   583  0167                     l1429:
   584                           
   585                           ;Proyecto2.c: 179:     INTCONbits.RBIE = 1;
   586  0167  121D               	bcf	29,4	;volatile
   587  0168                     l1431:
   588                           
   589                           ;Proyecto2.c: 180: 
   590  0168  129D               	bcf	29,5	;volatile
   591  0169                     l1433:
   592                           
   593                           ;Proyecto2.c: 183:     ANSEL = 0b00001111;
   594  0169  108C               	bcf	12,1	;volatile
   595  016A                     l1435:
   596                           
   597                           ;Proyecto2.c: 184:     ANSELH = 0x0;
   598  016A  1412               	bsf	18,0	;volatile
   599  016B                     l1437:
   600                           
   601                           ;Proyecto2.c: 185:     TRISA = 0xff;
   602  016B  1492               	bsf	18,1	;volatile
   603  016C                     l1439:
   604                           
   605                           ;Proyecto2.c: 186:     TRISC = 0b10000000;
   606  016C  1512               	bsf	18,2	;volatile
   607  016D                     l1441:
   608                           
   609                           ;Proyecto2.c: 189: 
   610  016D  1683               	bsf	3,5	;RP0=1, select bank1
   611  016E  1303               	bcf	3,6	;RP1=0, select bank1
   612  016F  170C               	bsf	12,6	;volatile
   613  0170                     l1443:
   614                           
   615                           ;Proyecto2.c: 190: 
   616  0170  1283               	bcf	3,5	;RP0=0, select bank0
   617  0171  1303               	bcf	3,6	;RP1=0, select bank0
   618  0172  130C               	bcf	12,6	;volatile
   619  0173                     l1445:
   620                           
   621                           ;Proyecto2.c: 191:     PORTB = 0;
   622  0173  1683               	bsf	3,5	;RP0=1, select bank1
   623  0174  1303               	bcf	3,6	;RP1=0, select bank1
   624  0175  139F               	bcf	31,7	;volatile
   625  0176                     l1447:
   626                           
   627                           ;Proyecto2.c: 192:     PORTC = 0;
   628  0176  121F               	bcf	31,4	;volatile
   629  0177                     l1449:
   630                           
   631                           ;Proyecto2.c: 193:     PORTD = 0;
   632  0177  121F               	bcf	31,4	;volatile
   633  0178                     l1451:
   634                           
   635                           ;Proyecto2.c: 194:     PORTE = 0;
   636  0178  1283               	bcf	3,5	;RP0=0, select bank0
   637  0179  1303               	bcf	3,6	;RP1=0, select bank0
   638  017A  131F               	bcf	31,6	;volatile
   639  017B                     l1453:
   640                           
   641                           ;Proyecto2.c: 195:     Boton = 2;
   642  017B  179F               	bsf	31,7	;volatile
   643  017C                     l1455:
   644                           
   645                           ;Proyecto2.c: 196:     B_flag = 0;
   646  017C  141F               	bsf	31,0	;volatile
   647                           
   648                           ;Proyecto2.c: 197:     Lock = 1;
   649  017D  3020               	movlw	32
   650  017E  1283               	bcf	3,5	;RP0=0, select bank0
   651  017F  1303               	bcf	3,6	;RP1=0, select bank0
   652  0180  00B2               	movwf	??_main
   653  0181                     u1357:
   654  0181  0BB2               	decfsz	??_main,f
   655  0182  2981               	goto	u1357
   656  0183  0000               	nop
   657  0184                     l1457:
   658                           
   659                           ;Proyecto2.c: 198: 
   660  0184  1283               	bcf	3,5	;RP0=0, select bank0
   661  0185  1303               	bcf	3,6	;RP1=0, select bank0
   662  0186  149F               	bsf	31,1	;volatile
   663  0187                     l1459:
   664                           
   665                           ;Proyecto2.c: 201: 
   666  0187  1683               	bsf	3,5	;RP0=1, select bank1
   667  0188  1303               	bcf	3,6	;RP1=0, select bank1
   668  0189  1381               	bcf	1,7	;volatile
   669  018A                     l1461:
   670                           
   671                           ;Proyecto2.c: 202: 
   672  018A  1415               	bsf	21,0	;volatile
   673  018B                     l1463:
   674                           
   675                           ;Proyecto2.c: 203:         Motores();
   676  018B  1495               	bsf	21,1	;volatile
   677  018C                     l1465:
   678                           
   679                           ;Proyecto2.c: 204:         Botones();
   680  018C  1515               	bsf	21,2	;volatile
   681  018D                     l1467:
   682                           
   683                           ;Proyecto2.c: 205:         if (Adelante == 1 && Atras == 0){
   684  018D  1595               	bsf	21,3	;volatile
   685  018E                     l1469:
   686                           
   687                           ;Proyecto2.c: 206:             Motores_Adelante();
   688  018E  1615               	bsf	21,4	;volatile
   689  018F                     l1471:
   690                           
   691                           ;Proyecto2.c: 207:         }else if(Adelante == 0 && Atras == 1){
   692  018F  1695               	bsf	21,5	;volatile
   693  0190                     l1473:
   694                           
   695                           ;Proyecto2.c: 208:             Motores_Atras();
   696  0190  1715               	bsf	21,6	;volatile
   697  0191                     l1475:
   698                           
   699                           ;Proyecto2.c: 210:             Motores_Neutro();
   700  0191  1416               	bsf	22,0	;volatile
   701  0192                     l1477:
   702                           
   703                           ;Proyecto2.c: 211:         }
   704  0192  1496               	bsf	22,1	;volatile
   705  0193                     l1479:
   706                           
   707                           ;Proyecto2.c: 212:     }
   708  0193  1516               	bsf	22,2	;volatile
   709  0194                     l1481:
   710                           
   711                           ;Proyecto2.c: 213: }
   712  0194  1596               	bsf	22,3	;volatile
   713  0195                     l1483:
   714                           
   715                           ;Proyecto2.c: 214: void Motores(void){
   716  0195  1616               	bsf	22,4	;volatile
   717  0196                     l1485:
   718                           
   719                           ;Proyecto2.c: 215:     if(WD == 0){
   720  0196  1696               	bsf	22,5	;volatile
   721  0197                     l1487:
   722                           
   723                           ;Proyecto2.c: 216:         CCPR1L = 0;
   724  0197  1716               	bsf	22,6	;volatile
   725  0198                     l1489:
   726                           
   727                           ;Proyecto2.c: 217:         CCPR2L = Valor_CCP2;
   728  0198  100B               	bcf	11,0	;volatile
   729  0199                     l1491:
   730                           
   731                           ;Proyecto2.c: 218:     }else if(Lock == 1 && WD == 1){
   732  0199  158B               	bsf	11,3	;volatile
   733                           
   734                           ;Proyecto2.c: 222:         CCPR1L = Valor_CCP1;
   735  019A  300F               	movlw	15
   736  019B  1683               	bsf	3,5	;RP0=1, select bank3
   737  019C  1703               	bsf	3,6	;RP1=1, select bank3
   738  019D  0088               	movwf	8	;volatile
   739  019E                     l1493:
   740                           
   741                           ;Proyecto2.c: 223:         CCPR2L = Valor_CCP2;
   742  019E  0189               	clrf	9	;volatile
   743  019F                     l1495:
   744                           
   745                           ;Proyecto2.c: 224:     }
   746  019F  30FF               	movlw	255
   747  01A0  1683               	bsf	3,5	;RP0=1, select bank1
   748  01A1  1303               	bcf	3,6	;RP1=0, select bank1
   749  01A2  0085               	movwf	5	;volatile
   750  01A3                     l1497:
   751                           
   752                           ;Proyecto2.c: 225: }
   753  01A3  3080               	movlw	128
   754  01A4  0087               	movwf	7	;volatile
   755  01A5                     l1499:
   756                           
   757                           ;Proyecto2.c: 226: 
   758  01A5  0188               	clrf	8	;volatile
   759  01A6                     l1501:
   760                           
   761                           ;Proyecto2.c: 227: void Botones(void){
   762  01A6  0189               	clrf	9	;volatile
   763  01A7                     l1503:
   764                           
   765                           ;Proyecto2.c: 230:             Adelante = 1;
   766  01A7  1283               	bcf	3,5	;RP0=0, select bank0
   767  01A8  1303               	bcf	3,6	;RP1=0, select bank0
   768  01A9  0186               	clrf	6	;volatile
   769  01AA                     l1505:
   770                           
   771                           ;Proyecto2.c: 231:             Atras = 0;
   772  01AA  0187               	clrf	7	;volatile
   773  01AB                     l1507:
   774                           
   775                           ;Proyecto2.c: 232:             B_flag = 0;
   776  01AB  0188               	clrf	8	;volatile
   777  01AC                     l1509:
   778                           
   779                           ;Proyecto2.c: 233:         }else if(Boton == 1){
   780  01AC  0189               	clrf	9	;volatile
   781  01AD                     l1511:
   782                           
   783                           ;Proyecto2.c: 234:             Adelante = 0;
   784  01AD  3002               	movlw	2
   785  01AE  00FF               	movwf	btemp+1
   786  01AF  087F               	movf	btemp+1,w
   787  01B0  00AA               	movwf	_Boton
   788  01B1                     l1513:
   789                           
   790                           ;Proyecto2.c: 235:             Atras = 1;
   791  01B1  01A9               	clrf	_B_flag
   792  01B2                     l1515:
   793                           
   794                           ;Proyecto2.c: 236:             B_flag = 0;
   795  01B2  01A6               	clrf	_Lock
   796  01B3  0AA6               	incf	_Lock,f
   797  01B4                     l1517:
   798                           
   799                           ;Proyecto2.c: 242:             B_flag = 0;
   800  01B4  120A  118A  22A6  120A  118A  	fcall	_Motores
   801  01B9                     l1519:
   802                           
   803                           ;Proyecto2.c: 243:         }else if(Boton == 4){
   804  01B9  120A  118A  225B  120A  118A  	fcall	_Botones
   805  01BE                     l1521:
   806                           
   807                           ;Proyecto2.c: 244:             WD = 1;
   808  01BE  1283               	bcf	3,5	;RP0=0, select bank0
   809  01BF  1303               	bcf	3,6	;RP1=0, select bank0
   810  01C0  0328               	decf	_Adelante,w
   811  01C1  1D03               	btfss	3,2
   812  01C2  29C4               	goto	u1291
   813  01C3  29C5               	goto	u1290
   814  01C4                     u1291:
   815  01C4  29D0               	goto	l1527
   816  01C5                     u1290:
   817  01C5                     l1523:
   818  01C5  0827               	movf	_Atras,w
   819  01C6  1D03               	btfss	3,2
   820  01C7  29C9               	goto	u1301
   821  01C8  29CA               	goto	u1300
   822  01C9                     u1301:
   823  01C9  29D0               	goto	l1527
   824  01CA                     u1300:
   825  01CA                     l1525:
   826                           
   827                           ;Proyecto2.c: 245:             B_flag = 0;
   828  01CA  120A  118A  2316  120A  118A  	fcall	_Motores_Adelante
   829                           
   830                           ;Proyecto2.c: 246:         }else if(Boton == 5){
   831  01CF  29B4               	goto	l1517
   832  01D0                     l1527:
   833  01D0  0828               	movf	_Adelante,w
   834  01D1  1D03               	btfss	3,2
   835  01D2  29D4               	goto	u1311
   836  01D3  29D5               	goto	u1310
   837  01D4                     u1311:
   838  01D4  29E0               	goto	l1533
   839  01D5                     u1310:
   840  01D5                     l1529:
   841  01D5  0327               	decf	_Atras,w
   842  01D6  1D03               	btfss	3,2
   843  01D7  29D9               	goto	u1321
   844  01D8  29DA               	goto	u1320
   845  01D9                     u1321:
   846  01D9  29E0               	goto	l1533
   847  01DA                     u1320:
   848  01DA                     l1531:
   849                           
   850                           ;Proyecto2.c: 247:             if(Lock == 1){
   851  01DA  120A  118A  22F4  120A  118A  	fcall	_Motores_Atras
   852                           
   853                           ;Proyecto2.c: 248:                 Lock = 0;
   854  01DF  29B4               	goto	l1517
   855  01E0                     l1533:
   856  01E0  0828               	movf	_Adelante,w
   857  01E1  1D03               	btfss	3,2
   858  01E2  29E4               	goto	u1331
   859  01E3  29E5               	goto	u1330
   860  01E4                     u1331:
   861  01E4  29F0               	goto	l200
   862  01E5                     u1330:
   863  01E5                     l1535:
   864  01E5  0827               	movf	_Atras,w
   865  01E6  1D03               	btfss	3,2
   866  01E7  29E9               	goto	u1341
   867  01E8  29EA               	goto	u1340
   868  01E9                     u1341:
   869  01E9  29F0               	goto	l200
   870  01EA                     u1340:
   871  01EA                     l1537:
   872                           
   873                           ;Proyecto2.c: 249:             }else{
   874  01EA  120A  118A  2338  120A  118A  	fcall	_Motores_Neutro
   875  01EF  29B4               	goto	l1517
   876  01F0                     l200:
   877  01F0  29B4               	goto	l1517
   878  01F1  120A  118A  2810   	ljmp	start
   879  01F4                     __end_of_main:
   880                           
   881                           	psect	text1
   882  0338                     __ptext1:	
   883 ;; *************** function _Motores_Neutro *****************
   884 ;; Defined at:
   885 ;;		line 310 in file "Proyecto2.c"
   886 ;; Parameters:    Size  Location     Type
   887 ;;		None
   888 ;; Auto vars:     Size  Location     Type
   889 ;;		None
   890 ;; Return value:  Size  Location     Type
   891 ;;                  1    wreg      void 
   892 ;; Registers used:
   893 ;;		None
   894 ;; Tracked objects:
   895 ;;		On entry : 0/0
   896 ;;		On exit  : 0/0
   897 ;;		Unchanged: 0/0
   898 ;; Data sizes:     COMMON   BANK0   BANK1   BANK3   BANK2
   899 ;;      Params:         0       0       0       0       0
   900 ;;      Locals:         0       0       0       0       0
   901 ;;      Temps:          0       0       0       0       0
   902 ;;      Totals:         0       0       0       0       0
   903 ;;Total ram usage:        0 bytes
   904 ;; Hardware stack levels used:    1
   905 ;; Hardware stack levels required when called:    2
   906 ;; This function calls:
   907 ;;		Nothing
   908 ;; This function is called by:
   909 ;;		_main
   910 ;; This function uses a non-reentrant model
   911 ;;
   912                           
   913                           
   914                           ;psect for function _Motores_Neutro
   915  0338                     _Motores_Neutro:
   916  0338                     l1247:	
   917                           ;incstack = 0
   918                           ; Regs used in _Motores_Neutro: []
   919                           
   920  0338  1283               	bcf	3,5	;RP0=0, select bank0
   921  0339  1303               	bcf	3,6	;RP1=0, select bank0
   922  033A  1088               	bcf	8,1	;volatile
   923  033B  1888               	btfsc	8,1	;volatile
   924  033C  2B3E               	goto	u941
   925  033D  2B42               	goto	u940
   926  033E                     u941:
   927  033E  1283               	bcf	3,5	;RP0=0, select bank0
   928  033F  1303               	bcf	3,6	;RP1=0, select bank0
   929  0340  1588               	bsf	8,3	;volatile
   930  0341  2B45               	goto	u954
   931  0342                     u940:
   932  0342  1283               	bcf	3,5	;RP0=0, select bank0
   933  0343  1303               	bcf	3,6	;RP1=0, select bank0
   934  0344  1188               	bcf	8,3	;volatile
   935  0345                     u954:
   936  0345  1008               	bcf	8,0	;volatile
   937  0346  1808               	btfsc	8,0	;volatile
   938  0347  2B49               	goto	u961
   939  0348  2B4D               	goto	u960
   940  0349                     u961:
   941  0349  1283               	bcf	3,5	;RP0=0, select bank0
   942  034A  1303               	bcf	3,6	;RP1=0, select bank0
   943  034B  1508               	bsf	8,2	;volatile
   944  034C  2B50               	goto	u974
   945  034D                     u960:
   946  034D  1283               	bcf	3,5	;RP0=0, select bank0
   947  034E  1303               	bcf	3,6	;RP1=0, select bank0
   948  034F  1108               	bcf	8,2	;volatile
   949  0350                     u974:
   950  0350                     l240:
   951  0350  0008               	return
   952  0351                     __end_of_Motores_Neutro:
   953                           
   954                           	psect	text2
   955  02F4                     __ptext2:	
   956 ;; *************** function _Motores_Atras *****************
   957 ;; Defined at:
   958 ;;		line 303 in file "Proyecto2.c"
   959 ;; Parameters:    Size  Location     Type
   960 ;;		None
   961 ;; Auto vars:     Size  Location     Type
   962 ;;		None
   963 ;; Return value:  Size  Location     Type
   964 ;;                  1    wreg      void 
   965 ;; Registers used:
   966 ;;		None
   967 ;; Tracked objects:
   968 ;;		On entry : 0/0
   969 ;;		On exit  : 0/0
   970 ;;		Unchanged: 0/0
   971 ;; Data sizes:     COMMON   BANK0   BANK1   BANK3   BANK2
   972 ;;      Params:         0       0       0       0       0
   973 ;;      Locals:         0       0       0       0       0
   974 ;;      Temps:          0       0       0       0       0
   975 ;;      Totals:         0       0       0       0       0
   976 ;;Total ram usage:        0 bytes
   977 ;; Hardware stack levels used:    1
   978 ;; Hardware stack levels required when called:    2
   979 ;; This function calls:
   980 ;;		Nothing
   981 ;; This function is called by:
   982 ;;		_main
   983 ;; This function uses a non-reentrant model
   984 ;;
   985                           
   986                           
   987                           ;psect for function _Motores_Atras
   988  02F4                     _Motores_Atras:
   989  02F4                     l1245:	
   990                           ;incstack = 0
   991                           ; Regs used in _Motores_Atras: []
   992                           
   993  02F4  1283               	bcf	3,5	;RP0=0, select bank0
   994  02F5  1303               	bcf	3,6	;RP1=0, select bank0
   995  02F6  1907               	btfsc	7,2	;volatile
   996  02F7  2AF9               	goto	u881
   997  02F8  2AFD               	goto	u880
   998  02F9                     u881:
   999  02F9  1283               	bcf	3,5	;RP0=0, select bank0
  1000  02FA  1303               	bcf	3,6	;RP1=0, select bank0
  1001  02FB  1488               	bsf	8,1	;volatile
  1002  02FC  2B00               	goto	u894
  1003  02FD                     u880:
  1004  02FD  1283               	bcf	3,5	;RP0=0, select bank0
  1005  02FE  1303               	bcf	3,6	;RP1=0, select bank0
  1006  02FF  1088               	bcf	8,1	;volatile
  1007  0300                     u894:
  1008  0300  1887               	btfsc	7,1	;volatile
  1009  0301  2B03               	goto	u901
  1010  0302  2B07               	goto	u900
  1011  0303                     u901:
  1012  0303  1283               	bcf	3,5	;RP0=0, select bank0
  1013  0304  1303               	bcf	3,6	;RP1=0, select bank0
  1014  0305  1588               	bsf	8,3	;volatile
  1015  0306  2B0A               	goto	u914
  1016  0307                     u900:
  1017  0307  1283               	bcf	3,5	;RP0=0, select bank0
  1018  0308  1303               	bcf	3,6	;RP1=0, select bank0
  1019  0309  1188               	bcf	8,3	;volatile
  1020  030A                     u914:
  1021  030A  1008               	bcf	8,0	;volatile
  1022  030B  1808               	btfsc	8,0	;volatile
  1023  030C  2B0E               	goto	u921
  1024  030D  2B12               	goto	u920
  1025  030E                     u921:
  1026  030E  1283               	bcf	3,5	;RP0=0, select bank0
  1027  030F  1303               	bcf	3,6	;RP1=0, select bank0
  1028  0310  1508               	bsf	8,2	;volatile
  1029  0311  2B15               	goto	u934
  1030  0312                     u920:
  1031  0312  1283               	bcf	3,5	;RP0=0, select bank0
  1032  0313  1303               	bcf	3,6	;RP1=0, select bank0
  1033  0314  1108               	bcf	8,2	;volatile
  1034  0315                     u934:
  1035  0315                     l237:
  1036  0315  0008               	return
  1037  0316                     __end_of_Motores_Atras:
  1038                           
  1039                           	psect	text3
  1040  0316                     __ptext3:	
  1041 ;; *************** function _Motores_Adelante *****************
  1042 ;; Defined at:
  1043 ;;		line 297 in file "Proyecto2.c"
  1044 ;; Parameters:    Size  Location     Type
  1045 ;;		None
  1046 ;; Auto vars:     Size  Location     Type
  1047 ;;		None
  1048 ;; Return value:  Size  Location     Type
  1049 ;;                  1    wreg      void 
  1050 ;; Registers used:
  1051 ;;		None
  1052 ;; Tracked objects:
  1053 ;;		On entry : 0/0
  1054 ;;		On exit  : 0/0
  1055 ;;		Unchanged: 0/0
  1056 ;; Data sizes:     COMMON   BANK0   BANK1   BANK3   BANK2
  1057 ;;      Params:         0       0       0       0       0
  1058 ;;      Locals:         0       0       0       0       0
  1059 ;;      Temps:          0       0       0       0       0
  1060 ;;      Totals:         0       0       0       0       0
  1061 ;;Total ram usage:        0 bytes
  1062 ;; Hardware stack levels used:    1
  1063 ;; Hardware stack levels required when called:    2
  1064 ;; This function calls:
  1065 ;;		Nothing
  1066 ;; This function is called by:
  1067 ;;		_main
  1068 ;; This function uses a non-reentrant model
  1069 ;;
  1070                           
  1071                           
  1072                           ;psect for function _Motores_Adelante
  1073  0316                     _Motores_Adelante:
  1074  0316                     l1243:	
  1075                           ;incstack = 0
  1076                           ; Regs used in _Motores_Adelante: []
  1077                           
  1078  0316  1283               	bcf	3,5	;RP0=0, select bank0
  1079  0317  1303               	bcf	3,6	;RP1=0, select bank0
  1080  0318  1907               	btfsc	7,2	;volatile
  1081  0319  2B1B               	goto	u821
  1082  031A  2B1F               	goto	u820
  1083  031B                     u821:
  1084  031B  1283               	bcf	3,5	;RP0=0, select bank0
  1085  031C  1303               	bcf	3,6	;RP1=0, select bank0
  1086  031D  1408               	bsf	8,0	;volatile
  1087  031E  2B22               	goto	u834
  1088  031F                     u820:
  1089  031F  1283               	bcf	3,5	;RP0=0, select bank0
  1090  0320  1303               	bcf	3,6	;RP1=0, select bank0
  1091  0321  1008               	bcf	8,0	;volatile
  1092  0322                     u834:
  1093  0322  1887               	btfsc	7,1	;volatile
  1094  0323  2B25               	goto	u841
  1095  0324  2B29               	goto	u840
  1096  0325                     u841:
  1097  0325  1283               	bcf	3,5	;RP0=0, select bank0
  1098  0326  1303               	bcf	3,6	;RP1=0, select bank0
  1099  0327  1508               	bsf	8,2	;volatile
  1100  0328  2B2C               	goto	u854
  1101  0329                     u840:
  1102  0329  1283               	bcf	3,5	;RP0=0, select bank0
  1103  032A  1303               	bcf	3,6	;RP1=0, select bank0
  1104  032B  1108               	bcf	8,2	;volatile
  1105  032C                     u854:
  1106  032C  1088               	bcf	8,1	;volatile
  1107  032D  1888               	btfsc	8,1	;volatile
  1108  032E  2B30               	goto	u861
  1109  032F  2B34               	goto	u860
  1110  0330                     u861:
  1111  0330  1283               	bcf	3,5	;RP0=0, select bank0
  1112  0331  1303               	bcf	3,6	;RP1=0, select bank0
  1113  0332  1588               	bsf	8,3	;volatile
  1114  0333  2B37               	goto	u874
  1115  0334                     u860:
  1116  0334  1283               	bcf	3,5	;RP0=0, select bank0
  1117  0335  1303               	bcf	3,6	;RP1=0, select bank0
  1118  0336  1188               	bcf	8,3	;volatile
  1119  0337                     u874:
  1120  0337                     l234:
  1121  0337  0008               	return
  1122  0338                     __end_of_Motores_Adelante:
  1123                           
  1124                           	psect	text4
  1125  02A6                     __ptext4:	
  1126 ;; *************** function _Motores *****************
  1127 ;; Defined at:
  1128 ;;		line 253 in file "Proyecto2.c"
  1129 ;; Parameters:    Size  Location     Type
  1130 ;;		None
  1131 ;; Auto vars:     Size  Location     Type
  1132 ;;		None
  1133 ;; Return value:  Size  Location     Type
  1134 ;;                  1    wreg      void 
  1135 ;; Registers used:
  1136 ;;		wreg, status,2, status,0
  1137 ;; Tracked objects:
  1138 ;;		On entry : 0/0
  1139 ;;		On exit  : 0/0
  1140 ;;		Unchanged: 0/0
  1141 ;; Data sizes:     COMMON   BANK0   BANK1   BANK3   BANK2
  1142 ;;      Params:         0       0       0       0       0
  1143 ;;      Locals:         0       0       0       0       0
  1144 ;;      Temps:          0       0       0       0       0
  1145 ;;      Totals:         0       0       0       0       0
  1146 ;;Total ram usage:        0 bytes
  1147 ;; Hardware stack levels used:    1
  1148 ;; Hardware stack levels required when called:    2
  1149 ;; This function calls:
  1150 ;;		Nothing
  1151 ;; This function is called by:
  1152 ;;		_main
  1153 ;; This function uses a non-reentrant model
  1154 ;;
  1155                           
  1156                           
  1157                           ;psect for function _Motores
  1158  02A6                     _Motores:
  1159  02A6                     l1187:	
  1160                           ;incstack = 0
  1161                           ; Regs used in _Motores: [wreg+status,2+status,0]
  1162                           
  1163                           
  1164                           ;Proyecto2.c: 254: 
  1165  02A6  1283               	bcf	3,5	;RP0=0, select bank0
  1166  02A7  1303               	bcf	3,6	;RP1=0, select bank0
  1167  02A8  0825               	movf	_WD,w
  1168  02A9  1D03               	btfss	3,2
  1169  02AA  2AAC               	goto	u681
  1170  02AB  2AAD               	goto	u680
  1171  02AC                     u681:
  1172  02AC  2AB1               	goto	l1193
  1173  02AD                     u680:
  1174  02AD                     l1189:
  1175                           
  1176                           ;Proyecto2.c: 255:     }
  1177  02AD  0195               	clrf	21	;volatile
  1178  02AE                     l1191:
  1179                           
  1180                           ;Proyecto2.c: 256: }
  1181  02AE  082B               	movf	_Valor_CCP2,w
  1182  02AF  009B               	movwf	27	;volatile
  1183                           
  1184                           ;Proyecto2.c: 257: 
  1185  02B0  2ACE               	goto	l214
  1186  02B1                     l1193:
  1187  02B1  0326               	decf	_Lock,w
  1188  02B2  1D03               	btfss	3,2
  1189  02B3  2AB5               	goto	u691
  1190  02B4  2AB6               	goto	u690
  1191  02B5                     u691:
  1192  02B5  2AC0               	goto	l1199
  1193  02B6                     u690:
  1194  02B6                     l1195:
  1195  02B6  0325               	decf	_WD,w
  1196  02B7  1D03               	btfss	3,2
  1197  02B8  2ABA               	goto	u701
  1198  02B9  2ABB               	goto	u700
  1199  02BA                     u701:
  1200  02BA  2AC0               	goto	l1199
  1201  02BB                     u700:
  1202  02BB                     l1197:
  1203                           
  1204                           ;Proyecto2.c: 258: void Motores_Adelante(void){
  1205  02BB  082B               	movf	_Valor_CCP2,w
  1206  02BC  0095               	movwf	21	;volatile
  1207                           
  1208                           ;Proyecto2.c: 259:     RD0 = RC2;
  1209  02BD  082B               	movf	_Valor_CCP2,w
  1210  02BE  009B               	movwf	27	;volatile
  1211                           
  1212                           ;Proyecto2.c: 260:     RD2 = RC1;
  1213  02BF  2ACE               	goto	l214
  1214  02C0                     l1199:
  1215  02C0  0826               	movf	_Lock,w
  1216  02C1  1D03               	btfss	3,2
  1217  02C2  2AC4               	goto	u711
  1218  02C3  2AC5               	goto	u710
  1219  02C4                     u711:
  1220  02C4  2ACE               	goto	l214
  1221  02C5                     u710:
  1222  02C5                     l1201:
  1223  02C5  0325               	decf	_WD,w
  1224  02C6  1D03               	btfss	3,2
  1225  02C7  2AC9               	goto	u721
  1226  02C8  2ACA               	goto	u720
  1227  02C9                     u721:
  1228  02C9  2ACE               	goto	l214
  1229  02CA                     u720:
  1230  02CA                     l1203:
  1231                           
  1232                           ;Proyecto2.c: 261:     RD1 = 0;
  1233  02CA  082C               	movf	_Valor_CCP1,w
  1234  02CB  0095               	movwf	21	;volatile
  1235                           
  1236                           ;Proyecto2.c: 262:     RD3 = RD1;
  1237  02CC  082B               	movf	_Valor_CCP2,w
  1238  02CD  009B               	movwf	27	;volatile
  1239  02CE                     l214:
  1240  02CE  0008               	return
  1241  02CF                     __end_of_Motores:
  1242                           
  1243                           	psect	text5
  1244  025B                     __ptext5:	
  1245 ;; *************** function _Botones *****************
  1246 ;; Defined at:
  1247 ;;		line 266 in file "Proyecto2.c"
  1248 ;; Parameters:    Size  Location     Type
  1249 ;;		None
  1250 ;; Auto vars:     Size  Location     Type
  1251 ;;		None
  1252 ;; Return value:  Size  Location     Type
  1253 ;;                  1    wreg      void 
  1254 ;; Registers used:
  1255 ;;		wreg, status,2, status,0
  1256 ;; Tracked objects:
  1257 ;;		On entry : 0/0
  1258 ;;		On exit  : 0/0
  1259 ;;		Unchanged: 0/0
  1260 ;; Data sizes:     COMMON   BANK0   BANK1   BANK3   BANK2
  1261 ;;      Params:         0       0       0       0       0
  1262 ;;      Locals:         0       0       0       0       0
  1263 ;;      Temps:          0       0       0       0       0
  1264 ;;      Totals:         0       0       0       0       0
  1265 ;;Total ram usage:        0 bytes
  1266 ;; Hardware stack levels used:    1
  1267 ;; Hardware stack levels required when called:    2
  1268 ;; This function calls:
  1269 ;;		Nothing
  1270 ;; This function is called by:
  1271 ;;		_main
  1272 ;; This function uses a non-reentrant model
  1273 ;;
  1274                           
  1275                           
  1276                           ;psect for function _Botones
  1277  025B                     _Botones:
  1278  025B                     l1205:	
  1279                           ;incstack = 0
  1280                           ; Regs used in _Botones: [wreg+status,2+status,0]
  1281                           
  1282                           
  1283                           ;Proyecto2.c: 267:     RD0 = 0;
  1284  025B  1283               	bcf	3,5	;RP0=0, select bank0
  1285  025C  1303               	bcf	3,6	;RP1=0, select bank0
  1286  025D  0329               	decf	_B_flag,w
  1287  025E  1D03               	btfss	3,2
  1288  025F  2A61               	goto	u731
  1289  0260  2A62               	goto	u730
  1290  0261                     u731:
  1291  0261  2AA5               	goto	l231
  1292  0262                     u730:
  1293  0262                     l1207:
  1294                           
  1295                           ;Proyecto2.c: 268:     RD2 = RD0;
  1296  0262  082A               	movf	_Boton,w
  1297  0263  1D03               	btfss	3,2
  1298  0264  2A66               	goto	u741
  1299  0265  2A67               	goto	u740
  1300  0266                     u741:
  1301  0266  2A70               	goto	l1215
  1302  0267                     u740:
  1303  0267                     l1209:
  1304  0267  1C06               	btfss	6,0	;volatile
  1305  0268  2A6A               	goto	u751
  1306  0269  2A6B               	goto	u750
  1307  026A                     u751:
  1308  026A  2A70               	goto	l1215
  1309  026B                     u750:
  1310  026B                     l1211:
  1311                           
  1312                           ;Proyecto2.c: 269: }
  1313  026B  01A8               	clrf	_Adelante
  1314  026C  0AA8               	incf	_Adelante,f
  1315  026D                     l1213:
  1316                           
  1317                           ;Proyecto2.c: 270: 
  1318  026D  01A7               	clrf	_Atras
  1319                           
  1320                           ;Proyecto2.c: 271: void Motores_Neutro(void){
  1321  026E  01A9               	clrf	_B_flag
  1322                           
  1323                           ;Proyecto2.c: 272:     RD1 = 0;
  1324  026F  2AA5               	goto	l231
  1325  0270                     l1215:
  1326  0270  032A               	decf	_Boton,w
  1327  0271  1D03               	btfss	3,2
  1328  0272  2A74               	goto	u761
  1329  0273  2A75               	goto	u760
  1330  0274                     u761:
  1331  0274  2A7A               	goto	l1221
  1332  0275                     u760:
  1333  0275                     l1217:
  1334                           
  1335                           ;Proyecto2.c: 273:     RD3 = RD1;
  1336  0275  01A8               	clrf	_Adelante
  1337  0276                     l1219:
  1338                           
  1339                           ;Proyecto2.c: 274:     RD0 = 0;
  1340  0276  01A7               	clrf	_Atras
  1341  0277  0AA7               	incf	_Atras,f
  1342                           
  1343                           ;Proyecto2.c: 275:     RD2 = RD0;
  1344  0278  01A9               	clrf	_B_flag
  1345                           
  1346                           ;Proyecto2.c: 276: }
  1347  0279  2AA5               	goto	l231
  1348  027A                     l1221:
  1349  027A  3002               	movlw	2
  1350  027B  062A               	xorwf	_Boton,w
  1351  027C  1D03               	btfss	3,2
  1352  027D  2A7F               	goto	u771
  1353  027E  2A80               	goto	u770
  1354  027F                     u771:
  1355  027F  2A84               	goto	l1225
  1356  0280                     u770:
  1357  0280                     l1223:
  1358                           
  1359                           ;Proyecto2.c: 277: 
  1360  0280  01A8               	clrf	_Adelante
  1361                           
  1362                           ;Proyecto2.c: 278: void Servo_1(void){
  1363  0281  01A7               	clrf	_Atras
  1364                           
  1365                           ;Proyecto2.c: 279: 
  1366  0282  01A9               	clrf	_B_flag
  1367                           
  1368                           ;Proyecto2.c: 280: }
  1369  0283  2AA5               	goto	l231
  1370  0284                     l1225:
  1371  0284  3003               	movlw	3
  1372  0285  062A               	xorwf	_Boton,w
  1373  0286  1D03               	btfss	3,2
  1374  0287  2A89               	goto	u781
  1375  0288  2A8A               	goto	u780
  1376  0289                     u781:
  1377  0289  2A8C               	goto	l1229
  1378  028A                     u780:
  1379  028A                     l1227:
  1380  028A  01A9               	clrf	_B_flag
  1381  028B  2AA5               	goto	l231
  1382  028C                     l1229:
  1383  028C  3004               	movlw	4
  1384  028D  062A               	xorwf	_Boton,w
  1385  028E  1D03               	btfss	3,2
  1386  028F  2A91               	goto	u791
  1387  0290  2A92               	goto	u790
  1388  0291                     u791:
  1389  0291  2A95               	goto	l1235
  1390  0292                     u790:
  1391  0292                     l1231:
  1392  0292  01A5               	clrf	_WD
  1393  0293  0AA5               	incf	_WD,f
  1394  0294  2A8A               	goto	l1227
  1395  0295                     l1235:
  1396  0295  3005               	movlw	5
  1397  0296  062A               	xorwf	_Boton,w
  1398  0297  1D03               	btfss	3,2
  1399  0298  2A9A               	goto	u801
  1400  0299  2A9B               	goto	u800
  1401  029A                     u801:
  1402  029A  2AA5               	goto	l223
  1403  029B                     u800:
  1404  029B                     l1237:
  1405  029B  0326               	decf	_Lock,w
  1406  029C  1D03               	btfss	3,2
  1407  029D  2A9F               	goto	u811
  1408  029E  2AA0               	goto	u810
  1409  029F                     u811:
  1410  029F  2AA2               	goto	l229
  1411  02A0                     u810:
  1412  02A0                     l1239:
  1413  02A0  01A6               	clrf	_Lock
  1414  02A1  2A8A               	goto	l1227
  1415  02A2                     l229:
  1416  02A2  01A6               	clrf	_Lock
  1417  02A3  0AA6               	incf	_Lock,f
  1418  02A4  2A8A               	goto	l1227
  1419  02A5                     l223:
  1420  02A5                     l231:
  1421  02A5  0008               	return
  1422  02A6                     __end_of_Botones:
  1423                           
  1424                           	psect	text6
  1425  0026                     __ptext6:	
  1426 ;; *************** function _isr *****************
  1427 ;; Defined at:
  1428 ;;		line 69 in file "Proyecto2.c"
  1429 ;; Parameters:    Size  Location     Type
  1430 ;;		None
  1431 ;; Auto vars:     Size  Location     Type
  1432 ;;		None
  1433 ;; Return value:  Size  Location     Type
  1434 ;;                  1    wreg      void 
  1435 ;; Registers used:
  1436 ;;		wreg, status,2, status,0, btemp+1, pclath, cstack
  1437 ;; Tracked objects:
  1438 ;;		On entry : 0/0
  1439 ;;		On exit  : 0/0
  1440 ;;		Unchanged: 0/0
  1441 ;; Data sizes:     COMMON   BANK0   BANK1   BANK3   BANK2
  1442 ;;      Params:         0       0       0       0       0
  1443 ;;      Locals:         0       0       0       0       0
  1444 ;;      Temps:          0       5       0       0       0
  1445 ;;      Totals:         0       5       0       0       0
  1446 ;;Total ram usage:        5 bytes
  1447 ;; Hardware stack levels used:    1
  1448 ;; Hardware stack levels required when called:    1
  1449 ;; This function calls:
  1450 ;;		___awdiv
  1451 ;;		___wmul
  1452 ;; This function is called by:
  1453 ;;		Interrupt level 1
  1454 ;; This function uses a non-reentrant model
  1455 ;;
  1456                           
  1457                           
  1458                           ;psect for function _isr
  1459  0026                     _isr:
  1460  0026                     i1l1307:
  1461                           
  1462                           ;Proyecto2.c: 71:         if (PORTB == 0b11111110){
  1463  0026  1D0B               	btfss	11,2	;volatile
  1464  0027  2829               	goto	u112_21
  1465  0028  282A               	goto	u112_20
  1466  0029                     u112_21:
  1467  0029  2843               	goto	i1l1321
  1468  002A                     u112_20:
  1469  002A                     i1l1309:
  1470                           
  1471                           ;Proyecto2.c: 72:             Boton = 0;
  1472  002A  110B               	bcf	11,2	;volatile
  1473  002B                     i1l1311:
  1474                           
  1475                           ;Proyecto2.c: 73:             B_flag = 1;
  1476  002B  30FF               	movlw	255
  1477  002C  0081               	movwf	1	;volatile
  1478                           
  1479                           ;Proyecto2.c: 75:             Boton = 1;
  1480  002D  0824               	movf	_Contador_Servo1,w
  1481  002E  0222               	subwf	_Direccion,w
  1482  002F  1C03               	skipc
  1483  0030  2832               	goto	u113_21
  1484  0031  2833               	goto	u113_20
  1485  0032                     u113_21:
  1486  0032  2836               	goto	i1l166
  1487  0033                     u113_20:
  1488  0033                     i1l1313:
  1489                           
  1490                           ;Proyecto2.c: 76:             B_flag = 1;
  1491  0033  1708               	bsf	8,6	;volatile
  1492                           
  1493                           ;Proyecto2.c: 77:         }else if(PORTB == 0b11111011){
  1494  0034  1788               	bsf	8,7	;volatile
  1495                           
  1496                           ;Proyecto2.c: 78:             Boton = 2;
  1497  0035  2838               	goto	i1l1315
  1498  0036                     i1l166:
  1499                           
  1500                           ;Proyecto2.c: 79:             B_flag = 1;
  1501  0036  1308               	bcf	8,6	;volatile
  1502                           
  1503                           ;Proyecto2.c: 80:         }else if(PORTB == 0b11110111){
  1504  0037  1388               	bcf	8,7	;volatile
  1505  0038                     i1l1315:
  1506                           
  1507                           ;Proyecto2.c: 83:         }else if(PORTB == 0b11101111){
  1508  0038  3014               	movlw	20
  1509  0039  0224               	subwf	_Contador_Servo1,w
  1510  003A  1C03               	skipc
  1511  003B  283D               	goto	u114_21
  1512  003C  283E               	goto	u114_20
  1513  003D                     u114_21:
  1514  003D  283F               	goto	i1l1319
  1515  003E                     u114_20:
  1516  003E                     i1l1317:
  1517                           
  1518                           ;Proyecto2.c: 84:             Boton = 4;
  1519  003E  01A4               	clrf	_Contador_Servo1
  1520  003F                     i1l1319:
  1521                           
  1522                           ;Proyecto2.c: 86:         }else if(PORTB == 0b11011111){
  1523  003F  3001               	movlw	1
  1524  0040  00FF               	movwf	btemp+1
  1525  0041  087F               	movf	btemp+1,w
  1526  0042  07A4               	addwf	_Contador_Servo1,f
  1527  0043                     i1l1321:
  1528                           
  1529                           ;Proyecto2.c: 90:         RBIF = 0;
  1530  0043  1F0C               	btfss	12,6	;volatile
  1531  0044  2846               	goto	u115_21
  1532  0045  2847               	goto	u115_20
  1533  0046                     u115_21:
  1534  0046  28CC               	goto	i1l1349
  1535  0047                     u115_20:
  1536  0047                     i1l1323:
  1537                           
  1538                           ;Proyecto2.c: 91:     }
  1539  0047  130C               	bcf	12,6	;volatile
  1540  0048                     i1l1325:
  1541                           
  1542                           ;Proyecto2.c: 92: 
  1543  0048  0C1F               	rrf	31,w	;volatile
  1544  0049  00AD               	movwf	??_isr
  1545  004A  0C2D               	rrf	??_isr,w
  1546  004B  390F               	andlw	15
  1547  004C  3A00               	xorlw	0
  1548  004D  1D03               	skipz
  1549  004E  2850               	goto	u116_21
  1550  004F  2851               	goto	u116_20
  1551  0050                     u116_21:
  1552  0050  286C               	goto	i1l1331
  1553  0051                     u116_20:
  1554  0051                     i1l1327:
  1555                           
  1556                           ;Proyecto2.c: 93:     if (RCIF == 1){
  1557  0051  3002               	movlw	2
  1558  0052  00F6               	movwf	___awdiv@divisor
  1559  0053  3000               	movlw	0
  1560  0054  00F7               	movwf	___awdiv@divisor+1
  1561  0055  081E               	movf	30,w	;volatile
  1562  0056  00AD               	movwf	??_isr
  1563  0057  01AE               	clrf	??_isr+1
  1564  0058  082D               	movf	??_isr,w
  1565  0059  00F8               	movwf	___awdiv@dividend
  1566  005A  082E               	movf	??_isr+1,w
  1567  005B  00F9               	movwf	___awdiv@dividend+1
  1568  005C  120A  118A  21F4  120A  118A  	fcall	___awdiv
  1569  0061  0876               	movf	?___awdiv,w
  1570  0062  00FF               	movwf	btemp+1
  1571  0063  087F               	movf	btemp+1,w
  1572  0064  1283               	bcf	3,5	;RP0=0, select bank0
  1573  0065  1303               	bcf	3,6	;RP1=0, select bank0
  1574  0066  00AC               	movwf	_Valor_CCP1
  1575  0067                     i1l1329:
  1576                           
  1577                           ;Proyecto2.c: 94:         RCIF = 0;
  1578  0067  081F               	movf	31,w	;volatile
  1579  0068  39C3               	andlw	-61
  1580  0069  3804               	iorlw	4
  1581  006A  009F               	movwf	31	;volatile
  1582                           
  1583                           ;Proyecto2.c: 95: 
  1584  006B  28C2               	goto	i1l1345
  1585  006C                     i1l1331:
  1586  006C  0C1F               	rrf	31,w	;volatile
  1587  006D  00AD               	movwf	??_isr
  1588  006E  0C2D               	rrf	??_isr,w
  1589  006F  390F               	andlw	15
  1590  0070  3A01               	xorlw	1
  1591  0071  1D03               	skipz
  1592  0072  2874               	goto	u117_21
  1593  0073  2875               	goto	u117_20
  1594  0074                     u117_21:
  1595  0074  2890               	goto	i1l1337
  1596  0075                     u117_20:
  1597  0075                     i1l1333:
  1598                           
  1599                           ;Proyecto2.c: 96:         if (RCREG == '1'){
  1600  0075  3002               	movlw	2
  1601  0076  00F6               	movwf	___awdiv@divisor
  1602  0077  3000               	movlw	0
  1603  0078  00F7               	movwf	___awdiv@divisor+1
  1604  0079  081E               	movf	30,w	;volatile
  1605  007A  00AD               	movwf	??_isr
  1606  007B  01AE               	clrf	??_isr+1
  1607  007C  082D               	movf	??_isr,w
  1608  007D  00F8               	movwf	___awdiv@dividend
  1609  007E  082E               	movf	??_isr+1,w
  1610  007F  00F9               	movwf	___awdiv@dividend+1
  1611  0080  120A  118A  21F4  120A  118A  	fcall	___awdiv
  1612  0085  0876               	movf	?___awdiv,w
  1613  0086  00FF               	movwf	btemp+1
  1614  0087  087F               	movf	btemp+1,w
  1615  0088  1283               	bcf	3,5	;RP0=0, select bank0
  1616  0089  1303               	bcf	3,6	;RP1=0, select bank0
  1617  008A  00AB               	movwf	_Valor_CCP2
  1618  008B                     i1l1335:
  1619                           
  1620                           ;Proyecto2.c: 97:             TXREG = Direccion;
  1621  008B  081F               	movf	31,w	;volatile
  1622  008C  39C3               	andlw	-61
  1623  008D  3808               	iorlw	8
  1624  008E  009F               	movwf	31	;volatile
  1625                           
  1626                           ;Proyecto2.c: 98:         } else if(RCREG == '2'){
  1627  008F  28C2               	goto	i1l1345
  1628  0090                     i1l1337:
  1629  0090  0C1F               	rrf	31,w	;volatile
  1630  0091  00AD               	movwf	??_isr
  1631  0092  0C2D               	rrf	??_isr,w
  1632  0093  390F               	andlw	15
  1633  0094  3A02               	xorlw	2
  1634  0095  1D03               	skipz
  1635  0096  2898               	goto	u118_21
  1636  0097  2899               	goto	u118_20
  1637  0098                     u118_21:
  1638  0098  28C2               	goto	i1l1345
  1639  0099                     u118_20:
  1640  0099                     i1l1339:
  1641                           
  1642                           ;Proyecto2.c: 99:             TXREG = M_Luces;
  1643  0099  081E               	movf	30,w	;volatile
  1644  009A  00FF               	movwf	btemp+1
  1645  009B  087F               	movf	btemp+1,w
  1646  009C  00A2               	movwf	_Direccion
  1647  009D                     i1l1341:
  1648                           
  1649                           ;Proyecto2.c: 100:         }else if(RCREG == '3'){
  1650  009D  30FF               	movlw	255
  1651  009E  00F6               	movwf	___awdiv@divisor
  1652  009F  3000               	movlw	0
  1653  00A0  00F7               	movwf	___awdiv@divisor+1
  1654  00A1  0822               	movf	_Direccion,w
  1655  00A2  00AD               	movwf	??_isr
  1656  00A3  01AE               	clrf	??_isr+1
  1657  00A4  082D               	movf	??_isr,w
  1658  00A5  00F0               	movwf	___wmul@multiplier
  1659  00A6  082E               	movf	??_isr+1,w
  1660  00A7  00F1               	movwf	___wmul@multiplier+1
  1661  00A8  3006               	movlw	6
  1662  00A9  00F2               	movwf	___wmul@multiplicand
  1663  00AA  3000               	movlw	0
  1664  00AB  00F3               	movwf	___wmul@multiplicand+1
  1665  00AC  120A  118A  22CF  120A  118A  	fcall	___wmul
  1666  00B1  0871               	movf	?___wmul+1,w
  1667  00B2  00F9               	movwf	___awdiv@dividend+1
  1668  00B3  0870               	movf	?___wmul,w
  1669  00B4  00F8               	movwf	___awdiv@dividend
  1670  00B5  120A  118A  21F4  120A  118A  	fcall	___awdiv
  1671  00BA  0876               	movf	?___awdiv,w
  1672  00BB  00FF               	movwf	btemp+1
  1673  00BC  087F               	movf	btemp+1,w
  1674  00BD  1283               	bcf	3,5	;RP0=0, select bank0
  1675  00BE  1303               	bcf	3,6	;RP1=0, select bank0
  1676  00BF  00A2               	movwf	_Direccion
  1677  00C0                     i1l1343:
  1678                           
  1679                           ;Proyecto2.c: 101: 
  1680  00C0  30C3               	movlw	-61
  1681  00C1  059F               	andwf	31,f	;volatile
  1682  00C2                     i1l1345:
  1683                           
  1684                           ;Proyecto2.c: 105: }
  1685  00C2  3020               	movlw	32
  1686  00C3  1283               	bcf	3,5	;RP0=0, select bank0
  1687  00C4  1303               	bcf	3,6	;RP1=0, select bank0
  1688  00C5  00AD               	movwf	??_isr
  1689  00C6                     u136_27:
  1690  00C6  0BAD               	decfsz	??_isr,f
  1691  00C7  28C6               	goto	u136_27
  1692  00C8  0000               	nop
  1693  00C9                     i1l1347:
  1694                           
  1695                           ;Proyecto2.c: 106: 
  1696  00C9  1283               	bcf	3,5	;RP0=0, select bank0
  1697  00CA  1303               	bcf	3,6	;RP1=0, select bank0
  1698  00CB  149F               	bsf	31,1	;volatile
  1699  00CC                     i1l1349:
  1700                           
  1701                           ;Proyecto2.c: 109:     IRCF0 = 1;
  1702  00CC  1C0B               	btfss	11,0	;volatile
  1703  00CD  28CF               	goto	u119_21
  1704  00CE  28D0               	goto	u119_20
  1705  00CF                     u119_21:
  1706  00CF  2912               	goto	i1l1387
  1707  00D0                     u119_20:
  1708  00D0                     i1l1351:
  1709                           
  1710                           ;Proyecto2.c: 110:     IRCF1 = 1;
  1711  00D0  30FE               	movlw	254
  1712  00D1  0606               	xorwf	6,w	;volatile
  1713  00D2  1D03               	btfss	3,2
  1714  00D3  28D5               	goto	u120_21
  1715  00D4  28D6               	goto	u120_20
  1716  00D5                     u120_21:
  1717  00D5  28DA               	goto	i1l1357
  1718  00D6                     u120_20:
  1719  00D6                     i1l1353:
  1720                           
  1721                           ;Proyecto2.c: 111:     IRCF2 = 1;
  1722  00D6  01AA               	clrf	_Boton
  1723  00D7                     i1l1355:
  1724                           
  1725                           ;Proyecto2.c: 112: 
  1726  00D7  01A9               	clrf	_B_flag
  1727  00D8  0AA9               	incf	_B_flag,f
  1728                           
  1729                           ;Proyecto2.c: 113: 
  1730  00D9  2911               	goto	i1l1385
  1731  00DA                     i1l1357:
  1732  00DA  30FD               	movlw	253
  1733  00DB  0606               	xorwf	6,w	;volatile
  1734  00DC  1D03               	btfss	3,2
  1735  00DD  28DF               	goto	u121_21
  1736  00DE  28E0               	goto	u121_20
  1737  00DF                     u121_21:
  1738  00DF  28E5               	goto	i1l1361
  1739  00E0                     u121_20:
  1740  00E0                     i1l1359:
  1741                           
  1742                           ;Proyecto2.c: 114:     PS0 = 0;
  1743  00E0  01AA               	clrf	_Boton
  1744  00E1  0AAA               	incf	_Boton,f
  1745                           
  1746                           ;Proyecto2.c: 115:     PS1 = 1;
  1747  00E2  01A9               	clrf	_B_flag
  1748  00E3  0AA9               	incf	_B_flag,f
  1749                           
  1750                           ;Proyecto2.c: 116:     PS2 = 1;
  1751  00E4  2911               	goto	i1l1385
  1752  00E5                     i1l1361:
  1753  00E5  30FB               	movlw	251
  1754  00E6  0606               	xorwf	6,w	;volatile
  1755  00E7  1D03               	btfss	3,2
  1756  00E8  28EA               	goto	u122_21
  1757  00E9  28EB               	goto	u122_20
  1758  00EA                     u122_21:
  1759  00EA  28F0               	goto	i1l1367
  1760  00EB                     u122_20:
  1761  00EB                     i1l1363:
  1762                           
  1763                           ;Proyecto2.c: 117:     T0CS = 0;
  1764  00EB  3002               	movlw	2
  1765  00EC  00FF               	movwf	btemp+1
  1766  00ED  087F               	movf	btemp+1,w
  1767  00EE  00AA               	movwf	_Boton
  1768  00EF  28D7               	goto	i1l1355
  1769  00F0                     i1l1367:
  1770  00F0  30F7               	movlw	247
  1771  00F1  0606               	xorwf	6,w	;volatile
  1772  00F2  1D03               	btfss	3,2
  1773  00F3  28F5               	goto	u123_21
  1774  00F4  28F6               	goto	u123_20
  1775  00F5                     u123_21:
  1776  00F5  28FB               	goto	i1l1373
  1777  00F6                     u123_20:
  1778  00F6                     i1l1369:
  1779                           
  1780                           ;Proyecto2.c: 120:     TMR0 = 255;
  1781  00F6  3003               	movlw	3
  1782  00F7  00FF               	movwf	btemp+1
  1783  00F8  087F               	movf	btemp+1,w
  1784  00F9  00AA               	movwf	_Boton
  1785  00FA  28D7               	goto	i1l1355
  1786  00FB                     i1l1373:
  1787  00FB  30EF               	movlw	239
  1788  00FC  0606               	xorwf	6,w	;volatile
  1789  00FD  1D03               	btfss	3,2
  1790  00FE  2900               	goto	u124_21
  1791  00FF  2901               	goto	u124_20
  1792  0100                     u124_21:
  1793  0100  2906               	goto	i1l1379
  1794  0101                     u124_20:
  1795  0101                     i1l1375:
  1796                           
  1797                           ;Proyecto2.c: 123:     TXEN = 1;
  1798  0101  3004               	movlw	4
  1799  0102  00FF               	movwf	btemp+1
  1800  0103  087F               	movf	btemp+1,w
  1801  0104  00AA               	movwf	_Boton
  1802  0105  28D7               	goto	i1l1355
  1803  0106                     i1l1379:
  1804  0106  30DF               	movlw	223
  1805  0107  0606               	xorwf	6,w	;volatile
  1806  0108  1D03               	btfss	3,2
  1807  0109  290B               	goto	u125_21
  1808  010A  290C               	goto	u125_20
  1809  010B                     u125_21:
  1810  010B  2911               	goto	i1l181
  1811  010C                     u125_20:
  1812  010C                     i1l1381:
  1813                           
  1814                           ;Proyecto2.c: 126: 
  1815  010C  3005               	movlw	5
  1816  010D  00FF               	movwf	btemp+1
  1817  010E  087F               	movf	btemp+1,w
  1818  010F  00AA               	movwf	_Boton
  1819  0110  28D7               	goto	i1l1355
  1820  0111                     i1l181:
  1821  0111                     i1l1385:
  1822                           
  1823                           ;Proyecto2.c: 129:     PIR1bits.RCIF = 0;
  1824  0111  100B               	bcf	11,0	;volatile
  1825  0112                     i1l1387:
  1826                           
  1827                           ;Proyecto2.c: 132: 
  1828  0112  1E8C               	btfss	12,5	;volatile
  1829  0113  2915               	goto	u126_21
  1830  0114  2916               	goto	u126_20
  1831  0115                     u126_21:
  1832  0115  292A               	goto	i1l193
  1833  0116                     u126_20:
  1834  0116                     i1l1389:
  1835                           
  1836                           ;Proyecto2.c: 133:     PR2 = 249;
  1837  0116  128C               	bcf	12,5	;volatile
  1838  0117                     i1l1391:
  1839                           
  1840                           ;Proyecto2.c: 135:     CCP1CONbits.CCP1M = 0b00001100;
  1841  0117  3031               	movlw	49
  1842  0118  061A               	xorwf	26,w	;volatile
  1843  0119  1D03               	btfss	3,2
  1844  011A  291C               	goto	u127_21
  1845  011B  291D               	goto	u127_20
  1846  011C                     u127_21:
  1847  011C  2920               	goto	i1l1395
  1848  011D                     u127_20:
  1849  011D                     i1l1393:
  1850                           
  1851                           ;Proyecto2.c: 136:     CCP2CONbits.CCP2M = 0b00001100;
  1852  011D  0822               	movf	_Direccion,w
  1853  011E  0099               	movwf	25	;volatile
  1854                           
  1855                           ;Proyecto2.c: 137:     CCPR1L = 0x00;
  1856  011F  292A               	goto	i1l193
  1857  0120                     i1l1395:
  1858  0120  3032               	movlw	50
  1859  0121  061A               	xorwf	26,w	;volatile
  1860  0122  1D03               	btfss	3,2
  1861  0123  2925               	goto	u128_21
  1862  0124  2926               	goto	u128_20
  1863  0125                     u128_21:
  1864  0125  2929               	goto	i1l1399
  1865  0126                     u128_20:
  1866  0126                     i1l1397:
  1867                           
  1868                           ;Proyecto2.c: 138:     CCPR2L = 0x00;
  1869  0126  0821               	movf	_M_Luces,w
  1870  0127  0099               	movwf	25	;volatile
  1871                           
  1872                           ;Proyecto2.c: 139:     CCP1CONbits.DC1B = 0;
  1873  0128  292A               	goto	i1l193
  1874  0129                     i1l1399:
  1875  0129  081A               	movf	26,w	;volatile
  1876  012A                     i1l193:
  1877  012A  0831               	movf	??_isr+4,w
  1878  012B  00FF               	movwf	btemp+1
  1879  012C  0830               	movf	??_isr+3,w
  1880  012D  008A               	movwf	10
  1881  012E  0E2F               	swapf	(??_isr+2)^0,w
  1882  012F  0083               	movwf	3
  1883  0130  0EFE               	swapf	btemp,f
  1884  0131  0E7E               	swapf	btemp,w
  1885  0132  0009               	retfie
  1886  0133                     __end_of_isr:
  1887                           
  1888                           	psect	intentry
  1889  0004                     __pintentry:	
  1890                           ;incstack = 0
  1891                           ; Regs used in _isr: [wreg+status,2+status,0+btemp+1+pclath+cstack]
  1892                           
  1893  0004                     interrupt_function:
  1894  007E                     saved_w	set	btemp
  1895  0004  00FE               	movwf	btemp
  1896  0005  0E03               	swapf	3,w
  1897  0006  1283               	bcf	3,5	;RP0=0, select bank0
  1898  0007  1303               	bcf	3,6	;RP1=0, select bank0
  1899  0008  00AF               	movwf	??_isr+2
  1900  0009  080A               	movf	10,w
  1901  000A  00B0               	movwf	??_isr+3
  1902  000B  087F               	movf	btemp+1,w
  1903  000C  00B1               	movwf	??_isr+4
  1904  000D  120A  118A  2826   	ljmp	_isr
  1905                           
  1906                           	psect	text7
  1907  02CF                     __ptext7:	
  1908 ;; *************** function ___wmul *****************
  1909 ;; Defined at:
  1910 ;;		line 15 in file "C:\Program Files\Microchip\xc8\v2.20\pic\sources\c90\common\Umul16.c"
  1911 ;; Parameters:    Size  Location     Type
  1912 ;;  multiplier      2    0[COMMON] unsigned int 
  1913 ;;  multiplicand    2    2[COMMON] unsigned int 
  1914 ;; Auto vars:     Size  Location     Type
  1915 ;;  product         2    4[COMMON] unsigned int 
  1916 ;; Return value:  Size  Location     Type
  1917 ;;                  2    0[COMMON] unsigned int 
  1918 ;; Registers used:
  1919 ;;		wreg, status,2, status,0
  1920 ;; Tracked objects:
  1921 ;;		On entry : 0/0
  1922 ;;		On exit  : 0/0
  1923 ;;		Unchanged: 0/0
  1924 ;; Data sizes:     COMMON   BANK0   BANK1   BANK3   BANK2
  1925 ;;      Params:         4       0       0       0       0
  1926 ;;      Locals:         2       0       0       0       0
  1927 ;;      Temps:          0       0       0       0       0
  1928 ;;      Totals:         6       0       0       0       0
  1929 ;;Total ram usage:        6 bytes
  1930 ;; Hardware stack levels used:    1
  1931 ;; This function calls:
  1932 ;;		Nothing
  1933 ;; This function is called by:
  1934 ;;		_isr
  1935 ;; This function uses a non-reentrant model
  1936 ;;
  1937                           
  1938                           
  1939                           ;psect for function ___wmul
  1940  02CF                     ___wmul:
  1941  02CF                     i1l1249:	
  1942                           ;incstack = 0
  1943                           ; Regs used in ___wmul: [wreg+status,2+status,0]
  1944                           
  1945  02CF  01F4               	clrf	___wmul@product
  1946  02D0  01F5               	clrf	___wmul@product+1
  1947  02D1                     i1l1251:
  1948  02D1  1C70               	btfss	___wmul@multiplier,0
  1949  02D2  2AD4               	goto	u98_21
  1950  02D3  2AD5               	goto	u98_20
  1951  02D4                     u98_21:
  1952  02D4  2ADB               	goto	i1l329
  1953  02D5                     u98_20:
  1954  02D5                     i1l1253:
  1955  02D5  0872               	movf	___wmul@multiplicand,w
  1956  02D6  07F4               	addwf	___wmul@product,f
  1957  02D7  1803               	skipnc
  1958  02D8  0AF5               	incf	___wmul@product+1,f
  1959  02D9  0873               	movf	___wmul@multiplicand+1,w
  1960  02DA  07F5               	addwf	___wmul@product+1,f
  1961  02DB                     i1l329:
  1962  02DB  3001               	movlw	1
  1963  02DC                     u99_25:
  1964  02DC  1003               	clrc
  1965  02DD  0DF2               	rlf	___wmul@multiplicand,f
  1966  02DE  0DF3               	rlf	___wmul@multiplicand+1,f
  1967  02DF  3EFF               	addlw	-1
  1968  02E0  1D03               	skipz
  1969  02E1  2ADC               	goto	u99_25
  1970  02E2                     i1l1255:
  1971  02E2  3001               	movlw	1
  1972  02E3                     u100_25:
  1973  02E3  1003               	clrc
  1974  02E4  0CF1               	rrf	___wmul@multiplier+1,f
  1975  02E5  0CF0               	rrf	___wmul@multiplier,f
  1976  02E6  3EFF               	addlw	-1
  1977  02E7  1D03               	skipz
  1978  02E8  2AE3               	goto	u100_25
  1979  02E9                     i1l1257:
  1980  02E9  0870               	movf	___wmul@multiplier,w
  1981  02EA  0471               	iorwf	___wmul@multiplier+1,w
  1982  02EB  1D03               	btfss	3,2
  1983  02EC  2AEE               	goto	u101_21
  1984  02ED  2AEF               	goto	u101_20
  1985  02EE                     u101_21:
  1986  02EE  2AD1               	goto	i1l1251
  1987  02EF                     u101_20:
  1988  02EF                     i1l1259:
  1989  02EF  0875               	movf	___wmul@product+1,w
  1990  02F0  00F1               	movwf	?___wmul+1
  1991  02F1  0874               	movf	___wmul@product,w
  1992  02F2  00F0               	movwf	?___wmul
  1993  02F3                     i1l331:
  1994  02F3  0008               	return
  1995  02F4                     __end_of___wmul:
  1996                           
  1997                           	psect	text8
  1998  01F4                     __ptext8:	
  1999 ;; *************** function ___awdiv *****************
  2000 ;; Defined at:
  2001 ;;		line 5 in file "C:\Program Files\Microchip\xc8\v2.20\pic\sources\c90\common\awdiv.c"
  2002 ;; Parameters:    Size  Location     Type
  2003 ;;  divisor         2    6[COMMON] int 
  2004 ;;  dividend        2    8[COMMON] int 
  2005 ;; Auto vars:     Size  Location     Type
  2006 ;;  quotient        2   12[COMMON] int 
  2007 ;;  sign            1   11[COMMON] unsigned char 
  2008 ;;  counter         1   10[COMMON] unsigned char 
  2009 ;; Return value:  Size  Location     Type
  2010 ;;                  2    6[COMMON] int 
  2011 ;; Registers used:
  2012 ;;		wreg, status,2, status,0, btemp+1
  2013 ;; Tracked objects:
  2014 ;;		On entry : 0/0
  2015 ;;		On exit  : 0/0
  2016 ;;		Unchanged: 0/0
  2017 ;; Data sizes:     COMMON   BANK0   BANK1   BANK3   BANK2
  2018 ;;      Params:         4       0       0       0       0
  2019 ;;      Locals:         4       0       0       0       0
  2020 ;;      Temps:          0       0       0       0       0
  2021 ;;      Totals:         8       0       0       0       0
  2022 ;;Total ram usage:        8 bytes
  2023 ;; Hardware stack levels used:    1
  2024 ;; This function calls:
  2025 ;;		Nothing
  2026 ;; This function is called by:
  2027 ;;		_isr
  2028 ;; This function uses a non-reentrant model
  2029 ;;
  2030                           
  2031                           
  2032                           ;psect for function ___awdiv
  2033  01F4                     ___awdiv:
  2034  01F4                     i1l1263:	
  2035                           ;incstack = 0
  2036                           ; Regs used in ___awdiv: [wreg+status,2+status,0+btemp+1]
  2037                           
  2038  01F4  01FB               	clrf	___awdiv@sign
  2039  01F5                     i1l1265:
  2040  01F5  1FF7               	btfss	___awdiv@divisor+1,7
  2041  01F6  29F8               	goto	u102_21
  2042  01F7  29F9               	goto	u102_20
  2043  01F8                     u102_21:
  2044  01F8  2A00               	goto	i1l1271
  2045  01F9                     u102_20:
  2046  01F9                     i1l1267:
  2047  01F9  09F6               	comf	___awdiv@divisor,f
  2048  01FA  09F7               	comf	___awdiv@divisor+1,f
  2049  01FB  0AF6               	incf	___awdiv@divisor,f
  2050  01FC  1903               	skipnz
  2051  01FD  0AF7               	incf	___awdiv@divisor+1,f
  2052  01FE                     i1l1269:
  2053  01FE  01FB               	clrf	___awdiv@sign
  2054  01FF  0AFB               	incf	___awdiv@sign,f
  2055  0200                     i1l1271:
  2056  0200  1FF9               	btfss	___awdiv@dividend+1,7
  2057  0201  2A03               	goto	u103_21
  2058  0202  2A04               	goto	u103_20
  2059  0203                     u103_21:
  2060  0203  2A0D               	goto	i1l1277
  2061  0204                     u103_20:
  2062  0204                     i1l1273:
  2063  0204  09F8               	comf	___awdiv@dividend,f
  2064  0205  09F9               	comf	___awdiv@dividend+1,f
  2065  0206  0AF8               	incf	___awdiv@dividend,f
  2066  0207  1903               	skipnz
  2067  0208  0AF9               	incf	___awdiv@dividend+1,f
  2068  0209                     i1l1275:
  2069  0209  3001               	movlw	1
  2070  020A  00FF               	movwf	btemp+1
  2071  020B  087F               	movf	btemp+1,w
  2072  020C  06FB               	xorwf	___awdiv@sign,f
  2073  020D                     i1l1277:
  2074  020D  01FC               	clrf	___awdiv@quotient
  2075  020E  01FD               	clrf	___awdiv@quotient+1
  2076  020F                     i1l1279:
  2077  020F  0876               	movf	___awdiv@divisor,w
  2078  0210  0477               	iorwf	___awdiv@divisor+1,w
  2079  0211  1903               	btfsc	3,2
  2080  0212  2A14               	goto	u104_21
  2081  0213  2A15               	goto	u104_20
  2082  0214                     u104_21:
  2083  0214  2A4C               	goto	i1l1299
  2084  0215                     u104_20:
  2085  0215                     i1l1281:
  2086  0215  01FA               	clrf	___awdiv@counter
  2087  0216  0AFA               	incf	___awdiv@counter,f
  2088  0217  2A23               	goto	i1l1287
  2089  0218                     i1l1283:
  2090  0218  3001               	movlw	1
  2091  0219                     u105_25:
  2092  0219  1003               	clrc
  2093  021A  0DF6               	rlf	___awdiv@divisor,f
  2094  021B  0DF7               	rlf	___awdiv@divisor+1,f
  2095  021C  3EFF               	addlw	-1
  2096  021D  1D03               	skipz
  2097  021E  2A19               	goto	u105_25
  2098  021F                     i1l1285:
  2099  021F  3001               	movlw	1
  2100  0220  00FF               	movwf	btemp+1
  2101  0221  087F               	movf	btemp+1,w
  2102  0222  07FA               	addwf	___awdiv@counter,f
  2103  0223                     i1l1287:
  2104  0223  1FF7               	btfss	___awdiv@divisor+1,7
  2105  0224  2A26               	goto	u106_21
  2106  0225  2A27               	goto	u106_20
  2107  0226                     u106_21:
  2108  0226  2A18               	goto	i1l1283
  2109  0227                     u106_20:
  2110  0227                     i1l1289:
  2111  0227  3001               	movlw	1
  2112  0228                     u107_25:
  2113  0228  1003               	clrc
  2114  0229  0DFC               	rlf	___awdiv@quotient,f
  2115  022A  0DFD               	rlf	___awdiv@quotient+1,f
  2116  022B  3EFF               	addlw	-1
  2117  022C  1D03               	skipz
  2118  022D  2A28               	goto	u107_25
  2119  022E  0877               	movf	___awdiv@divisor+1,w
  2120  022F  0279               	subwf	___awdiv@dividend+1,w
  2121  0230  1D03               	skipz
  2122  0231  2A34               	goto	u108_25
  2123  0232  0876               	movf	___awdiv@divisor,w
  2124  0233  0278               	subwf	___awdiv@dividend,w
  2125  0234                     u108_25:
  2126  0234  1C03               	skipc
  2127  0235  2A37               	goto	u108_21
  2128  0236  2A38               	goto	u108_20
  2129  0237                     u108_21:
  2130  0237  2A3F               	goto	i1l1295
  2131  0238                     u108_20:
  2132  0238                     i1l1291:
  2133  0238  0876               	movf	___awdiv@divisor,w
  2134  0239  02F8               	subwf	___awdiv@dividend,f
  2135  023A  0877               	movf	___awdiv@divisor+1,w
  2136  023B  1C03               	skipc
  2137  023C  03F9               	decf	___awdiv@dividend+1,f
  2138  023D  02F9               	subwf	___awdiv@dividend+1,f
  2139  023E                     i1l1293:
  2140  023E  147C               	bsf	___awdiv@quotient,0
  2141  023F                     i1l1295:
  2142  023F  3001               	movlw	1
  2143  0240                     u109_25:
  2144  0240  1003               	clrc
  2145  0241  0CF7               	rrf	___awdiv@divisor+1,f
  2146  0242  0CF6               	rrf	___awdiv@divisor,f
  2147  0243  3EFF               	addlw	-1
  2148  0244  1D03               	skipz
  2149  0245  2A40               	goto	u109_25
  2150  0246                     i1l1297:
  2151  0246  3001               	movlw	1
  2152  0247  02FA               	subwf	___awdiv@counter,f
  2153  0248  1D03               	btfss	3,2
  2154  0249  2A4B               	goto	u110_21
  2155  024A  2A4C               	goto	u110_20
  2156  024B                     u110_21:
  2157  024B  2A27               	goto	i1l1289
  2158  024C                     u110_20:
  2159  024C                     i1l1299:
  2160  024C  087B               	movf	___awdiv@sign,w
  2161  024D  1903               	btfsc	3,2
  2162  024E  2A50               	goto	u111_21
  2163  024F  2A51               	goto	u111_20
  2164  0250                     u111_21:
  2165  0250  2A56               	goto	i1l1303
  2166  0251                     u111_20:
  2167  0251                     i1l1301:
  2168  0251  09FC               	comf	___awdiv@quotient,f
  2169  0252  09FD               	comf	___awdiv@quotient+1,f
  2170  0253  0AFC               	incf	___awdiv@quotient,f
  2171  0254  1903               	skipnz
  2172  0255  0AFD               	incf	___awdiv@quotient+1,f
  2173  0256                     i1l1303:
  2174  0256  087D               	movf	___awdiv@quotient+1,w
  2175  0257  00F7               	movwf	?___awdiv+1
  2176  0258  087C               	movf	___awdiv@quotient,w
  2177  0259  00F6               	movwf	?___awdiv
  2178  025A                     i1l482:
  2179  025A  0008               	return
  2180  025B                     __end_of___awdiv:
  2181  007E                     btemp	set	126	;btemp
  2182  007E                     wtemp0	set	126
  2183                           
  2184                           	psect	config
  2185                           
  2186                           ;Config register CONFIG1 @ 0x2007
  2187                           ;	Oscillator Selection bits
  2188                           ;	FOSC = INTRC_NOCLKOUT, INTOSCIO oscillator: I/O function on RA6/OSC2/CLKOUT pin, I/O f
      +                          unction on RA7/OSC1/CLKIN
  2189                           ;	Watchdog Timer Enable bit
  2190                           ;	WDTE = OFF, WDT disabled and can be enabled by SWDTEN bit of the WDTCON register
  2191                           ;	Power-up Timer Enable bit
  2192                           ;	PWRTE = OFF, PWRT disabled
  2193                           ;	RE3/MCLR pin function select bit
  2194                           ;	MCLRE = OFF, RE3/MCLR pin function is digital input, MCLR internally tied to VDD
  2195                           ;	Code Protection bit
  2196                           ;	CP = OFF, Program memory code protection is disabled
  2197                           ;	Data Code Protection bit
  2198                           ;	CPD = OFF, Data memory code protection is disabled
  2199                           ;	Brown Out Reset Selection bits
  2200                           ;	BOREN = OFF, BOR disabled
  2201                           ;	Internal External Switchover bit
  2202                           ;	IESO = OFF, Internal/External Switchover mode is disabled
  2203                           ;	Fail-Safe Clock Monitor Enabled bit
  2204                           ;	FCMEN = OFF, Fail-Safe Clock Monitor is disabled
  2205                           ;	Low Voltage Programming Enable bit
  2206                           ;	LVP = OFF, RB3 pin has digital I/O, HV on MCLR must be used for programming
  2207                           ;	In-Circuit Debugger Mode bit
  2208                           ;	DEBUG = 0x1, unprogrammed default
  2209  2007                     	org	8199
  2210  2007  20D4               	dw	8404
  2211                           
  2212                           ;Config register CONFIG2 @ 0x2008
  2213                           ;	Brown-out Reset Selection bit
  2214                           ;	BOR4V = BOR40V, Brown-out Reset set to 4.0V
  2215                           ;	Flash Program Memory Self Write Enable bits
  2216                           ;	WRT = OFF, Write protection off
  2217  2008                     	org	8200
  2218  2008  3FFF               	dw	16383

Data Sizes:
    Strings     0
    Constant    0
    Data        0
    BSS         13
    Persistent  0
    Stack       0

Auto Spaces:
    Space          Size  Autos    Used
    COMMON           14     14      14
    BANK0            80      6      19
    BANK1            80      0       0
    BANK3            96      0       0
    BANK2            96      0       0

Pointer List with Targets:

    None.

Critical Paths under _main in COMMON

    None.

Critical Paths under _isr in COMMON

    _isr->___awdiv
    ___awdiv->___wmul

Critical Paths under _main in BANK0

    None.

Critical Paths under _isr in BANK0

    None.

Critical Paths under _main in BANK1

    None.

Critical Paths under _isr in BANK1

    None.

Critical Paths under _main in BANK3

    None.

Critical Paths under _isr in BANK3

    None.

Critical Paths under _main in BANK2

    None.

Critical Paths under _isr in BANK2

    None.

Call Graph Tables:

 ---------------------------------------------------------------------------------
 (Depth) Function   	        Calls       Base Space   Used Autos Params    Refs
 ---------------------------------------------------------------------------------
 (0) _main                                                 1     1      0       0
                                              5 BANK0      1     1      0
                            _Botones
                            _Motores
                   _Motores_Adelante
                      _Motores_Atras
                     _Motores_Neutro
 ---------------------------------------------------------------------------------
 (1) _Motores_Neutro                                       0     0      0       0
 ---------------------------------------------------------------------------------
 (1) _Motores_Atras                                        0     0      0       0
 ---------------------------------------------------------------------------------
 (1) _Motores_Adelante                                     0     0      0       0
 ---------------------------------------------------------------------------------
 (1) _Motores                                              0     0      0       0
 ---------------------------------------------------------------------------------
 (1) _Botones                                              0     0      0       0
 ---------------------------------------------------------------------------------
 Estimated maximum stack depth 1
 ---------------------------------------------------------------------------------
 (Depth) Function   	        Calls       Base Space   Used Autos Params    Refs
 ---------------------------------------------------------------------------------
 (2) _isr                                                  5     5      0    1000
                                              0 BANK0      5     5      0
                            ___awdiv
                             ___wmul
 ---------------------------------------------------------------------------------
 (3) ___wmul                                               6     2      4     244
                                              0 COMMON     6     2      4
 ---------------------------------------------------------------------------------
 (3) ___awdiv                                              8     4      4     756
                                              6 COMMON     8     4      4
                             ___wmul (ARG)
 ---------------------------------------------------------------------------------
 Estimated maximum stack depth 3
 ---------------------------------------------------------------------------------

 Call Graph Graphs:

 _main (ROOT)
   _Botones
   _Motores
   _Motores_Adelante
   _Motores_Atras
   _Motores_Neutro

 _isr (ROOT)
   ___awdiv
     ___wmul (ARG)
   ___wmul

 Address spaces:
Name               Size   Autos  Total    Cost      Usage
BITCOMMON            E      0       0       0        0.0%
EEDATA             100      0       0       0        0.0%
NULL                 0      0       0       0        0.0%
CODE                 0      0       0       0        0.0%
COMMON               E      E       E       1      100.0%
BITSFR0              0      0       0       1        0.0%
SFR0                 0      0       0       1        0.0%
BITSFR1              0      0       0       2        0.0%
SFR1                 0      0       0       2        0.0%
STACK                0      0       0       2        0.0%
ABS                  0      0      21       3        0.0%
BITBANK0            50      0       0       4        0.0%
BITSFR3              0      0       0       4        0.0%
SFR3                 0      0       0       4        0.0%
BANK0               50      6      13       5       23.8%
BITSFR2              0      0       0       5        0.0%
SFR2                 0      0       0       5        0.0%
BITBANK1            50      0       0       6        0.0%
BANK1               50      0       0       7        0.0%
BITBANK3            60      0       0       8        0.0%
BANK3               60      0       0       9        0.0%
BITBANK2            60      0       0      10        0.0%
BANK2               60      0       0      11        0.0%
DATA                 0      0      21      12        0.0%


Microchip Technology PIC Macro Assembler V2.20 build 20200408173844 
Symbol Table                                                                                   Fri Jun 04 02:41:59 2021

                        _t 0020                         _WD 0025               ___awdiv@sign 007B  
      ___wmul@multiplicand 0072  __size_of_Motores_Adelante 0022                        l200 01F0  
                      l214 02CE                        l223 02A5                        l231 02A5  
                      l240 0350                        l234 0337                        l229 02A2  
                      l237 0315                        _RB0 0030                        _RC1 0039  
                      _RD0 0040                        _RC2 003A                        _RD1 0041  
                      _RD2 0042                        _RD3 0043                        _RD6 0046  
                      _RD7 0047                        _PS0 0408                        _PR2 0092  
                      _PS1 0409                        _PS2 040A                        u700 02BB  
                      u701 02BA                        u710 02C5                        u711 02C4  
                      u800 029B                        u720 02CA                        u801 029A  
                      u721 02C9                        u810 02A0                        u730 0262  
                      u811 029F                        u731 0261                        u740 0267  
                      u820 031F                        u900 0307                        u741 0266  
                      u821 031B                        u901 0303                        u750 026B  
                      u751 026A                        _PSA 040B                        u760 0275  
                      u680 02AD                        u840 0329                        u920 0312  
                      u761 0274                        u681 02AC                        u841 0325  
                      u921 030E                        u770 0280                        u690 02B6  
                      u834 0322                        u914 030A                        u771 027F  
                      u691 02B5                        u780 028A                        u860 0334  
                      u940 0342                        u781 0289                        u861 0330  
                      u941 033E                        u790 0292                        u854 032C  
                      u934 0315                        u791 0291                        u880 02FD  
                      u960 034D                        u881 02F9                        u961 0349  
                      u874 0337                        u954 0345                        u894 0300  
                      u974 0350                        _isr 0026                       l1201 02C5  
                     l1211 026B                       l1203 02CA                       l1221 027A  
                     l1213 026D                       l1205 025B                       l1231 0292  
                     l1223 0280                       l1215 0270                       l1207 0262  
                     l1225 0284                       l1217 0275                       l1209 0267  
                     l1401 0133                       l1235 0295                       l1227 028A  
                     l1219 0276                       l1243 0316                       l1411 014A  
                     l1403 013D                       l1237 029B                       l1229 028C  
                     l1245 02F4                       l1501 01A6                       l1421 015F  
                     l1413 014B                       l1405 0143                       l1239 02A0  
                     l1191 02AE                       l1247 0338                       l1511 01AD  
                     l1503 01A7                       l1431 0168                       l1423 0163  
                     l1415 014E                       l1407 0146                       l1193 02B1  
                     l1521 01BE                       l1513 01B1                       l1505 01AA  
                     l1441 016D                       l1433 0169                       l1425 0164  
                     l1417 0157                       l1409 0147                       l1195 02B6  
                     l1187 02A6                       l1531 01DA                       l1523 01C5  
                     l1515 01B2                       l1507 01AB                       l1451 0178  
                     l1443 0170                       l1435 016A                       l1427 0165  
                     l1419 015B                       l1197 02BB                       l1189 02AD  
                     l1533 01E0                       l1525 01CA                       l1517 01B4  
                     l1509 01AC                       l1461 018A                       l1453 017B  
                     l1445 0173                       l1437 016B                       l1429 0167  
                     l1199 02C0                       l1535 01E5                       l1527 01D0  
                     l1519 01B9                       l1471 018F                       l1463 018B  
                     l1455 017C                       l1447 0176                       l1439 016C  
                     l1537 01EA                       l1529 01D5                       l1481 0194  
                     l1473 0190                       l1465 018C                       l1457 0184  
                     l1449 0177                       l1491 0199                       l1483 0195  
                     l1475 0191                       l1467 018D                       l1459 0187  
                     l1493 019E                       l1485 0196                       l1477 0192  
                     l1469 018E                       l1495 019F                       l1487 0197  
                     l1479 0193                       l1497 01A3                       l1489 0198  
                     l1499 01A5                       _ADIF 0066                       ?_isr 0070  
                     _T0IF 005A                       _CREN 00C4                       _T0CS 040D  
                     u1300 01CA                       u1301 01C9                       u1310 01D5  
                     u1311 01D4                       u1320 01DA                       u1321 01D9  
                     u1330 01E5                       u1331 01E4                       u1340 01EA  
                     u1341 01E9                       u1290 01C5                       u1291 01C4  
                     u1357 0181                       _RBIF 0058                       _RCIF 0065  
                     _TMR0 0001                       _SPEN 00C7                       _TXEN 04C5  
                     _SYNC 04C4                       _Lock 0026                       _main 0133  
                     btemp 007E                       start 0010            __end_of_Botones 02A6  
                    ??_isr 002D            __end_of_Motores 02CF                      ?_main 0070  
          __end_of___awdiv 025B                      _ANSEL 0188            ___awdiv@divisor 0076  
                    _IOCB0 04B0                      _IOCB1 04B1                      _IOCB2 04B2  
                    _IOCB3 04B3                      _IOCB4 04B4                      _IOCB5 04B5  
                    _IOCB6 04B6                      _IRCF0 047C                      _IRCF1 047D  
                    _IRCF2 047E                      i1l331 02F3                      i1l181 0111  
                    i1l166 0036                      i1l329 02DB                      i1l193 012A  
                    i1l482 025A            ___awdiv@counter 007A                      _RCREG 001A  
                    _SPBRG 0099                      _PORTB 0006                      _PORTC 0007  
                    _PORTD 0008                      _PORTE 0009                      _TRISA 0085  
                    _TRISC 0087                      _TRISD 0088                      _TRISE 0089  
                    _TXREG 0019                      u98_20 02D5                      u98_21 02D4  
                    u99_25 02DC                      _Atras 0027                      _Boton 002A  
                    pclath 000A    __size_of_Motores_Neutro 0019                      status 0003  
                    wtemp0 007E            __initialization 0013               __end_of_main 01F4  
                   ??_main 0032                     _ADRESH 001E                     _CCPR1L 0015  
                   _CCPR2L 001B           ___awdiv@dividend 0078                     _ANSELH 0189  
                   u100_25 02E3                     u101_20 02EF                     u101_21 02EE  
                   u110_20 024C                     u102_20 01F9                     u110_21 024B  
                   u102_21 01F8                     i1l1301 0251                     i1l1303 0256  
                   i1l1311 002B                     u111_20 0251                     u103_20 0204  
                   u111_21 0250                     u103_21 0203                     i1l1313 0033  
                   i1l1321 0043                     i1l1251 02D1                     i1l1331 006C  
                   i1l1323 0047                     i1l1315 0038                     i1l1307 0026  
                   i1l1253 02D5                     i1l1341 009D                     i1l1333 0075  
                   i1l1325 0048                     i1l1317 003E                     i1l1309 002A  
                   i1l1271 0200                     i1l1263 01F4                     i1l1255 02E2  
                   i1l1351 00D0                     i1l1343 00C0                     i1l1335 008B  
                   i1l1327 0051                     i1l1319 003F                     u104_20 0215  
                   u120_20 00D6                     u112_20 002A                     i1l1281 0215  
                   u104_21 0214                     i1l1273 0204                     i1l1265 01F5  
                   i1l1257 02E9                     i1l1249 02CF                     i1l1361 00E5  
                   i1l1353 00D6                     u120_21 00D5                     i1l1337 0090  
                   i1l1345 00C2                     i1l1329 0067                     u112_21 0029  
                   i1l1291 0238                     i1l1283 0218                     i1l1275 0209  
                   i1l1267 01F9                     i1l1259 02EF                     i1l1363 00EB  
                   i1l1355 00D7                     i1l1347 00C9                     i1l1339 0099  
                   i1l1293 023E                     i1l1285 021F                     i1l1277 020D  
                   i1l1269 01FE                     i1l1381 010C                     i1l1373 00FB  
                   i1l1357 00DA                     i1l1349 00CC                     i1l1295 023F  
                   i1l1287 0223                     i1l1279 020F                     i1l1391 0117  
                   i1l1375 0101                     i1l1367 00F0                     i1l1359 00E0  
                   u121_20 00E0                     u113_20 0033                     i1l1297 0246  
                   i1l1289 0227                     i1l1393 011D                     i1l1369 00F6  
                   u121_21 00DF                     i1l1385 0111                     u113_21 0032  
                   i1l1299 024C                     i1l1395 0120                     i1l1379 0106  
                   i1l1387 0112                     u105_25 0219                     i1l1397 0126  
                   i1l1389 0116                     i1l1399 0129                     u106_20 0227  
                   u122_20 00EB                     u114_20 003E                     u106_21 0226  
                   u122_21 00EA                     u114_21 003D                     u123_20 00F6  
                   u115_20 0047                     u123_21 00F5                     u115_21 0046  
                   u107_25 0228                     u108_20 0238                     u124_20 0101  
                   u116_20 0051                     u108_21 0237                     u124_21 0100  
                   u116_21 0050                     u108_25 0234                     u125_20 010C  
                   u117_20 0075                     u125_21 010B                     u117_21 0074  
                   u109_25 0240                     u126_20 0116                     u118_20 0099  
                   u126_21 0115                     u118_21 0098                     u127_20 011D  
                   u119_20 00D0                     u127_21 011C                     u119_21 00CF  
                   u128_20 0126                     u128_21 0125                     u136_27 00C6  
                   _INTCON 000B      __end_of_Motores_Atras 0316                     _B_flag 0029  
                ??_Botones 0032                 _Valor_CCP1 002C                 _Valor_CCP2 002B  
                ??_Motores 0032                     ___wmul 02CF                  ??___awdiv 007A  
         _Motores_Adelante 0316           ___awdiv@quotient 007C                     saved_w 007E  
  __end_of__initialization 0022             __pcstackCOMMON 0070             _OPTION_REGbits 0081  
               __pbssBANK0 0020             _Motores_Neutro 0338                 __pmaintext 0133  
                  ?___wmul 0070                 __pintentry 0004     __end_of_Motores_Neutro 0351  
                  _M_Luces 0021                    _Botones 025B                    _Motores 02A6  
                  ___awdiv 01F4            __size_of___wmul 0025            _Contador_Servo1 0024  
          _Contador_Servo2 0023                    __ptext1 0338                    __ptext2 02F4  
                  __ptext3 0316                    __ptext4 02A6                    __ptext5 025B  
                  __ptext6 0026                    __ptext7 02CF                    __ptext8 01F4  
                _T2CONbits 0012               __size_of_isr 010D            ?_Motores_Neutro 0070  
     end_of_initialization 0022   __end_of_Motores_Adelante 0338                _CCP1CONbits 0017  
              _CCP2CONbits 001D                  _Direccion 0022             __end_of___wmul 02F4  
   __size_of_Motores_Atras 0022        start_initialization 0013                __end_of_isr 0133  
                 ??___wmul 0074                  ___latbits 0002              __pcstackBANK0 002D  
            _Motores_Atras 02F4                   ?_Botones 0070                   ?_Motores 0070  
                 ?___awdiv 0076           ??_Motores_Neutro 0032             ?_Motores_Atras 0070  
        interrupt_function 0004          ?_Motores_Adelante 0070             ___wmul@product 0074  
                 _PIE1bits 008C         ??_Motores_Adelante 0032                   _PIR1bits 000C  
               _ADCON0bits 001F                 _ADCON1bits 009F          ___wmul@multiplier 0070  
                 _Adelante 0028                   _WPUBbits 0095           __size_of_Botones 004B  
         __size_of_Motores 0029           __size_of___awdiv 0067            ??_Motores_Atras 0032  
            __size_of_main 00C1                 _INTCONbits 000B                   intlevel1 0000  
